;
; Definition file of assimp-vc143-mtd.dll
; Automatic generated by gendef
; written by Kai Tietz 2008
;
LIBRARY "assimp-vc143-mtd.dll"
EXPORTS
; public: __cdecl Assimp::ArmaturePopulate::ArmaturePopulate(class Assimp::ArmaturePopulate const &__ptr64 )__ptr64 
??0ArmaturePopulate@Assimp@@QEAA@AEBV01@@Z
; public: __cdecl Assimp::ArmaturePopulate::ArmaturePopulate(void)__ptr64 
??0ArmaturePopulate@Assimp@@QEAA@XZ
; public: __cdecl Assimp::BaseImporter::BaseImporter(class Assimp::BaseImporter const &__ptr64 )__ptr64 
??0BaseImporter@Assimp@@QEAA@AEBV01@@Z
; public: __cdecl Assimp::BaseImporter::BaseImporter(void)__ptr64 
??0BaseImporter@Assimp@@QEAA@XZ
; public: __cdecl Assimp::BaseProcess::BaseProcess(class Assimp::BaseProcess const &__ptr64 )__ptr64 
??0BaseProcess@Assimp@@QEAA@AEBV01@@Z
; public: __cdecl Assimp::BaseProcess::BaseProcess(void)__ptr64 
??0BaseProcess@Assimp@@QEAA@XZ
; public: __cdecl Assimp::BatchLoader::BatchLoader(class Assimp::IOSystem *__ptr64,bool)__ptr64 
??0BatchLoader@Assimp@@QEAA@PEAVIOSystem@1@_N@Z
; public: __cdecl Assimp::CalcTangentsProcess::CalcTangentsProcess(class Assimp::CalcTangentsProcess const &__ptr64 )__ptr64 
??0CalcTangentsProcess@Assimp@@QEAA@AEBV01@@Z
; public: __cdecl Assimp::CalcTangentsProcess::CalcTangentsProcess(void)__ptr64 
??0CalcTangentsProcess@Assimp@@QEAA@XZ
; private: __cdecl Assimp::CommentRemover::CommentRemover(void)__ptr64 
??0CommentRemover@Assimp@@AEAA@XZ
; public: __cdecl ODDLParser::Context::Context(void)__ptr64 
??0Context@ODDLParser@@QEAA@XZ
; private: __cdecl ODDLParser::DDLNode::DDLNode(class std::<char,struct std::<char>,class std::<char>> const &__ptr64 ,class std::<char,struct std::<char>,class std::<char>> const &__ptr64 ,unsigned __int64,class ODDLParser::DDLNode *__ptr64)__ptr64 
??0DDLNode@ODDLParser@@AEAA@AEBV?$basic_string@DU?$char_traits@D@std@@V?$allocator@D@2@@std@@0_KPEAV01@@Z
; public: __cdecl ODDLParser::DataArrayList::DataArrayList(void)__ptr64 
??0DataArrayList@ODDLParser@@QEAA@XZ
; protected: __cdecl DeadlyErrorBase::DeadlyErrorBase(class Assimp::Formatter::<char,struct std::<char>,class std::<char>>)__ptr64 
??0DeadlyErrorBase@@IEAA@V?$basic_formatter@DU?$char_traits@D@std@@V?$allocator@D@2@@Formatter@Assimp@@@Z
; public: __cdecl DeadlyErrorBase::DeadlyErrorBase(,class DeadlyErrorBase *__ptr64 const)__ptr64 
??0DeadlyErrorBase@@QEAA@$$QEAV0@@Z
; public: __cdecl DeadlyErrorBase::DeadlyErrorBase(class DeadlyErrorBase const &__ptr64 )__ptr64 
??0DeadlyErrorBase@@QEAA@AEBV0@@Z
; public: __cdecl DeadlyExportError::DeadlyExportError(,class DeadlyExportError *__ptr64 const)__ptr64 
??0DeadlyExportError@@QEAA@$$QEAV0@@Z
; public: __cdecl DeadlyExportError::DeadlyExportError(class DeadlyExportError const &__ptr64 )__ptr64 
??0DeadlyExportError@@QEAA@AEBV0@@Z
; public: __cdecl DeadlyImportError::DeadlyImportError(,class DeadlyImportError *__ptr64 const)__ptr64 
??0DeadlyImportError@@QEAA@$$QEAV0@@Z
; public: __cdecl DeadlyImportError::DeadlyImportError(class DeadlyImportError const &__ptr64 )__ptr64 
??0DeadlyImportError@@QEAA@AEBV0@@Z
; public: __cdecl DeadlyImportError::DeadlyImportError(char const *__ptr64)__ptr64 
??0DeadlyImportError@@QEAA@PEBD@Z
; protected: __cdecl Assimp::DefaultIOStream::DefaultIOStream(struct _iobuf *__ptr64,class std::<char,struct std::<char>,class std::<char>> const &__ptr64 )__ptr64 
??0DefaultIOStream@Assimp@@IEAA@PEAU_iobuf@@AEBV?$basic_string@DU?$char_traits@D@std@@V?$allocator@D@2@@std@@@Z
; protected: __cdecl Assimp::DefaultIOStream::DefaultIOStream(void)__ptr64 
??0DefaultIOStream@Assimp@@IEAA@XZ
; public: __cdecl Assimp::DefaultIOStream::DefaultIOStream(class Assimp::DefaultIOStream const &__ptr64 )__ptr64 
??0DefaultIOStream@Assimp@@QEAA@AEBV01@@Z
; public: __cdecl Assimp::DefaultIOSystem::DefaultIOSystem(,class Assimp::DefaultIOSystem *__ptr64 const)__ptr64 
??0DefaultIOSystem@Assimp@@QEAA@$$QEAV01@@Z
; public: __cdecl Assimp::DefaultIOSystem::DefaultIOSystem(class Assimp::DefaultIOSystem const &__ptr64 )__ptr64 
??0DefaultIOSystem@Assimp@@QEAA@AEBV01@@Z
; public: __cdecl Assimp::DefaultIOSystem::DefaultIOSystem(void)__ptr64 
??0DefaultIOSystem@Assimp@@QEAA@XZ
; private: __cdecl Assimp::DefaultLogger::DefaultLogger(enum Assimp::Logger::LogSeverity)__ptr64 
??0DefaultLogger@Assimp@@AEAA@W4LogSeverity@Logger@1@@Z
; public: __cdecl Assimp::DefaultLogger::DefaultLogger(class Assimp::DefaultLogger const &__ptr64 )__ptr64 
??0DefaultLogger@Assimp@@QEAA@AEBV01@@Z
; public: __cdecl Assimp::DropFaceNormalsProcess::DropFaceNormalsProcess(class Assimp::DropFaceNormalsProcess const &__ptr64 )__ptr64 
??0DropFaceNormalsProcess@Assimp@@QEAA@AEBV01@@Z
; public: __cdecl Assimp::DropFaceNormalsProcess::DropFaceNormalsProcess(void)__ptr64 
??0DropFaceNormalsProcess@Assimp@@QEAA@XZ
; public: __cdecl Assimp::EmbedTexturesProcess::EmbedTexturesProcess(class Assimp::EmbedTexturesProcess const &__ptr64 )__ptr64 
??0EmbedTexturesProcess@Assimp@@QEAA@AEBV01@@Z
; public: __cdecl Assimp::EmbedTexturesProcess::EmbedTexturesProcess(void)__ptr64 
??0EmbedTexturesProcess@Assimp@@QEAA@XZ
; public: __cdecl Assimp::ExportProperties::ExportProperties(class Assimp::ExportProperties const &__ptr64 )__ptr64 
??0ExportProperties@Assimp@@QEAA@AEBV01@@Z
; public: __cdecl Assimp::ExportProperties::ExportProperties(void)__ptr64 
??0ExportProperties@Assimp@@QEAA@XZ
; public: __cdecl Assimp::Exporter::Exporter(void)__ptr64 
??0Exporter@Assimp@@QEAA@XZ
; public: __cdecl Assimp::FindDegeneratesProcess::FindDegeneratesProcess(class Assimp::FindDegeneratesProcess const &__ptr64 )__ptr64 
??0FindDegeneratesProcess@Assimp@@QEAA@AEBV01@@Z
; public: __cdecl Assimp::FindDegeneratesProcess::FindDegeneratesProcess(void)__ptr64 
??0FindDegeneratesProcess@Assimp@@QEAA@XZ
; public: __cdecl Assimp::FindInvalidDataProcess::FindInvalidDataProcess(class Assimp::FindInvalidDataProcess const &__ptr64 )__ptr64 
??0FindInvalidDataProcess@Assimp@@QEAA@AEBV01@@Z
; public: __cdecl Assimp::FindInvalidDataProcess::FindInvalidDataProcess(void)__ptr64 
??0FindInvalidDataProcess@Assimp@@QEAA@XZ
; public: __cdecl Assimp::GenBoundingBoxesProcess::GenBoundingBoxesProcess(class Assimp::GenBoundingBoxesProcess const &__ptr64 )__ptr64 
??0GenBoundingBoxesProcess@Assimp@@QEAA@AEBV01@@Z
; public: __cdecl Assimp::GenBoundingBoxesProcess::GenBoundingBoxesProcess(void)__ptr64 
??0GenBoundingBoxesProcess@Assimp@@QEAA@XZ
; public: __cdecl Assimp::GenFaceNormalsProcess::GenFaceNormalsProcess(class Assimp::GenFaceNormalsProcess const &__ptr64 )__ptr64 
??0GenFaceNormalsProcess@Assimp@@QEAA@AEBV01@@Z
; public: __cdecl Assimp::GenFaceNormalsProcess::GenFaceNormalsProcess(void)__ptr64 
??0GenFaceNormalsProcess@Assimp@@QEAA@XZ
; public: __cdecl Assimp::GenVertexNormalsProcess::GenVertexNormalsProcess(class Assimp::GenVertexNormalsProcess const &__ptr64 )__ptr64 
??0GenVertexNormalsProcess@Assimp@@QEAA@AEBV01@@Z
; public: __cdecl Assimp::GenVertexNormalsProcess::GenVertexNormalsProcess(void)__ptr64 
??0GenVertexNormalsProcess@Assimp@@QEAA@XZ
; protected: __cdecl Assimp::IOStream::IOStream(void)__ptr64 
??0IOStream@Assimp@@IEAA@XZ
; public: __cdecl Assimp::IOStream::IOStream(class Assimp::IOStream const &__ptr64 )__ptr64 
??0IOStream@Assimp@@QEAA@AEBV01@@Z
; public: __cdecl ODDLParser::IOStreamBase::IOStreamBase(class ODDLParser::IOStreamBase const &__ptr64 )__ptr64 
??0IOStreamBase@ODDLParser@@QEAA@AEBV01@@Z
; public: __cdecl ODDLParser::IOStreamBase::IOStreamBase(class ODDLParser::StreamFormatterBase *__ptr64)__ptr64 
??0IOStreamBase@ODDLParser@@QEAA@PEAVStreamFormatterBase@1@@Z
; public: __cdecl Assimp::IOSystem::IOSystem(class Assimp::IOSystem const &__ptr64 )__ptr64 
??0IOSystem@Assimp@@QEAA@AEBV01@@Z
; public: __cdecl Assimp::IOSystem::IOSystem(void)__ptr64 
??0IOSystem@Assimp@@QEAA@XZ
; public: __cdecl Assimp::Importer::Importer(void)__ptr64 
??0Importer@Assimp@@QEAA@XZ
; public: __cdecl ODDLParser::Value::Iterator::Iterator(class ODDLParser::Value::Iterator const &__ptr64 )__ptr64 
??0Iterator@Value@ODDLParser@@QEAA@AEBV012@@Z
; public: __cdecl ODDLParser::Value::Iterator::Iterator(class ODDLParser::Value *__ptr64)__ptr64 
??0Iterator@Value@ODDLParser@@QEAA@PEAV12@@Z
; public: __cdecl ODDLParser::Value::Iterator::Iterator(void)__ptr64 
??0Iterator@Value@ODDLParser@@QEAA@XZ
; public: __cdecl Assimp::JoinVerticesProcess::JoinVerticesProcess(class Assimp::JoinVerticesProcess const &__ptr64 )__ptr64 
??0JoinVerticesProcess@Assimp@@QEAA@AEBV01@@Z
; public: __cdecl Assimp::JoinVerticesProcess::JoinVerticesProcess(void)__ptr64 
??0JoinVerticesProcess@Assimp@@QEAA@XZ
; public: __cdecl Assimp::LimitBoneWeightsProcess::LimitBoneWeightsProcess(class Assimp::LimitBoneWeightsProcess const &__ptr64 )__ptr64 
??0LimitBoneWeightsProcess@Assimp@@QEAA@AEBV01@@Z
; public: __cdecl Assimp::LimitBoneWeightsProcess::LimitBoneWeightsProcess(void)__ptr64 
??0LimitBoneWeightsProcess@Assimp@@QEAA@XZ
; protected: __cdecl Assimp::LogStream::LogStream(void)__ptr64 
??0LogStream@Assimp@@IEAA@XZ
; public: __cdecl Assimp::LogStream::LogStream(class Assimp::LogStream const &__ptr64 )__ptr64 
??0LogStream@Assimp@@QEAA@AEBV01@@Z
; protected: __cdecl Assimp::Logger::Logger(enum Assimp::Logger::LogSeverity)__ptr64 
??0Logger@Assimp@@IEAA@W4LogSeverity@01@@Z
; protected: __cdecl Assimp::Logger::Logger(void)__ptr64 
??0Logger@Assimp@@IEAA@XZ
; public: __cdecl Assimp::Logger::Logger(class Assimp::Logger const &__ptr64 )__ptr64 
??0Logger@Assimp@@QEAA@AEBV01@@Z
; public: __cdecl Assimp::MakeVerboseFormatProcess::MakeVerboseFormatProcess(class Assimp::MakeVerboseFormatProcess const &__ptr64 )__ptr64 
??0MakeVerboseFormatProcess@Assimp@@QEAA@AEBV01@@Z
; public: __cdecl Assimp::MakeVerboseFormatProcess::MakeVerboseFormatProcess(void)__ptr64 
??0MakeVerboseFormatProcess@Assimp@@QEAA@XZ
; public: __cdecl ODDLParser::Name::Name(struct ODDLParser::Name const &__ptr64 )__ptr64 
??0Name@ODDLParser@@QEAA@AEBU01@@Z
; public: __cdecl ODDLParser::Name::Name(enum ODDLParser::NameType,struct ODDLParser::Text *__ptr64)__ptr64 
??0Name@ODDLParser@@QEAA@W4NameType@1@PEAUText@1@@Z
; public: __cdecl Assimp::NullLogger::NullLogger(,class Assimp::NullLogger *__ptr64 const)__ptr64 
??0NullLogger@Assimp@@QEAA@$$QEAV01@@Z
; public: __cdecl Assimp::NullLogger::NullLogger(class Assimp::NullLogger const &__ptr64 )__ptr64 
??0NullLogger@Assimp@@QEAA@AEBV01@@Z
; public: __cdecl Assimp::NullLogger::NullLogger(void)__ptr64 
??0NullLogger@Assimp@@QEAA@XZ
; public: __cdecl Assimp::ObjFileParser::ObjFileParser(class Assimp::<char> &__ptr64 ,class std::<char,struct std::<char>,class std::<char>> const &__ptr64 ,class Assimp::IOSystem *__ptr64,class Assimp::ProgressHandler *__ptr64,class std::<char,struct std::<char>,class std::<char>> const &__ptr64 )__ptr64 
??0ObjFileParser@Assimp@@QEAA@AEAV?$IOStreamBuffer@D@1@AEBV?$basic_string@DU?$char_traits@D@std@@V?$allocator@D@2@@std@@PEAVIOSystem@1@PEAVProgressHandler@1@1@Z
; public: __cdecl Assimp::ObjFileParser::ObjFileParser(void)__ptr64 
??0ObjFileParser@Assimp@@QEAA@XZ
; public: __cdecl ODDLParser::OpenDDLExport::OpenDDLExport(class ODDLParser::IOStreamBase *__ptr64)__ptr64 
??0OpenDDLExport@ODDLParser@@QEAA@PEAVIOStreamBase@1@@Z
; public: __cdecl ODDLParser::OpenDDLParser::OpenDDLParser(char const *__ptr64,unsigned __int64)__ptr64 
??0OpenDDLParser@ODDLParser@@QEAA@PEBD_K@Z
; public: __cdecl ODDLParser::OpenDDLParser::OpenDDLParser(void)__ptr64 
??0OpenDDLParser@ODDLParser@@QEAA@XZ
; public: __cdecl Assimp::PretransformVertices::PretransformVertices(class Assimp::PretransformVertices const &__ptr64 )__ptr64 
??0PretransformVertices@Assimp@@QEAA@AEBV01@@Z
; public: __cdecl Assimp::PretransformVertices::PretransformVertices(void)__ptr64 
??0PretransformVertices@Assimp@@QEAA@XZ
; protected: __cdecl Assimp::ProgressHandler::ProgressHandler(void)__ptr64 
??0ProgressHandler@Assimp@@IEAA@XZ
; public: __cdecl Assimp::ProgressHandler::ProgressHandler(class Assimp::ProgressHandler const &__ptr64 )__ptr64 
??0ProgressHandler@Assimp@@QEAA@AEBV01@@Z
; public: __cdecl ODDLParser::Property::Property(struct ODDLParser::Text *__ptr64)__ptr64 
??0Property@ODDLParser@@QEAA@PEAUText@1@@Z
; public: __cdecl ODDLParser::Reference::Reference(struct ODDLParser::Reference const &__ptr64 )__ptr64 
??0Reference@ODDLParser@@QEAA@AEBU01@@Z
; public: __cdecl ODDLParser::Reference::Reference(void)__ptr64 
??0Reference@ODDLParser@@QEAA@XZ
; public: __cdecl ODDLParser::Reference::Reference(unsigned __int64,struct ODDLParser::Name *__ptr64 *__ptr64)__ptr64 
??0Reference@ODDLParser@@QEAA@_KPEAPEAUName@1@@Z
; public: __cdecl Assimp::RemoveRedundantMatsProcess::RemoveRedundantMatsProcess(class Assimp::RemoveRedundantMatsProcess const &__ptr64 )__ptr64 
??0RemoveRedundantMatsProcess@Assimp@@QEAA@AEBV01@@Z
; public: __cdecl Assimp::RemoveRedundantMatsProcess::RemoveRedundantMatsProcess(void)__ptr64 
??0RemoveRedundantMatsProcess@Assimp@@QEAA@XZ
; public: __cdecl Assimp::RemoveVCProcess::RemoveVCProcess(class Assimp::RemoveVCProcess const &__ptr64 )__ptr64 
??0RemoveVCProcess@Assimp@@QEAA@AEBV01@@Z
; public: __cdecl Assimp::RemoveVCProcess::RemoveVCProcess(void)__ptr64 
??0RemoveVCProcess@Assimp@@QEAA@XZ
; public: __cdecl Assimp::SGSpatialSort::SGSpatialSort(class Assimp::SGSpatialSort const &__ptr64 )__ptr64 
??0SGSpatialSort@Assimp@@QEAA@AEBV01@@Z
; public: __cdecl Assimp::SGSpatialSort::SGSpatialSort(void)__ptr64 
??0SGSpatialSort@Assimp@@QEAA@XZ
; public: __cdecl Assimp::SIBImporter::SIBImporter(class Assimp::SIBImporter const &__ptr64 )__ptr64 
??0SIBImporter@Assimp@@QEAA@AEBV01@@Z
; public: __cdecl Assimp::SIBImporter::SIBImporter(void)__ptr64 
??0SIBImporter@Assimp@@QEAA@XZ
; public: __cdecl Assimp::SMDImporter::SMDImporter(class Assimp::SMDImporter const &__ptr64 )__ptr64 
??0SMDImporter@Assimp@@QEAA@AEBV01@@Z
; public: __cdecl Assimp::SMDImporter::SMDImporter(void)__ptr64 
??0SMDImporter@Assimp@@QEAA@XZ
; public: __cdecl Assimp::ScaleProcess::ScaleProcess(class Assimp::ScaleProcess const &__ptr64 )__ptr64 
??0ScaleProcess@Assimp@@QEAA@AEBV01@@Z
; public: __cdecl Assimp::ScaleProcess::ScaleProcess(void)__ptr64 
??0ScaleProcess@Assimp@@QEAA@XZ
; private: __cdecl Assimp::SceneCombiner::SceneCombiner(void)__ptr64 
??0SceneCombiner@Assimp@@AEAA@XZ
; public: __cdecl Assimp::ScenePreprocessor::ScenePreprocessor(struct aiScene *__ptr64)__ptr64 
??0ScenePreprocessor@Assimp@@QEAA@PEAUaiScene@@@Z
; public: __cdecl Assimp::ScenePreprocessor::ScenePreprocessor(void)__ptr64 
??0ScenePreprocessor@Assimp@@QEAA@XZ
; public: __cdecl Assimp::SkeletonMeshBuilder::SkeletonMeshBuilder(,class Assimp::SkeletonMeshBuilder *__ptr64 const)__ptr64 
??0SkeletonMeshBuilder@Assimp@@QEAA@$$QEAV01@@Z
; public: __cdecl Assimp::SkeletonMeshBuilder::SkeletonMeshBuilder(class Assimp::SkeletonMeshBuilder const &__ptr64 )__ptr64 
??0SkeletonMeshBuilder@Assimp@@QEAA@AEBV01@@Z
; public: __cdecl Assimp::SkeletonMeshBuilder::SkeletonMeshBuilder(struct aiScene *__ptr64,struct aiNode *__ptr64,bool)__ptr64 
??0SkeletonMeshBuilder@Assimp@@QEAA@PEAUaiScene@@PEAUaiNode@@_N@Z
; public: __cdecl Assimp::SortByPTypeProcess::SortByPTypeProcess(class Assimp::SortByPTypeProcess const &__ptr64 )__ptr64 
??0SortByPTypeProcess@Assimp@@QEAA@AEBV01@@Z
; public: __cdecl Assimp::SortByPTypeProcess::SortByPTypeProcess(void)__ptr64 
??0SortByPTypeProcess@Assimp@@QEAA@XZ
; public: __cdecl Assimp::SpatialSort::SpatialSort(class Assimp::SpatialSort const &__ptr64 )__ptr64 
??0SpatialSort@Assimp@@QEAA@AEBV01@@Z
; public: __cdecl Assimp::SpatialSort::SpatialSort(class <float> const *__ptr64,unsigned int,unsigned int)__ptr64 
??0SpatialSort@Assimp@@QEAA@PEBV?$aiVector3t@M@@II@Z
; public: __cdecl Assimp::SpatialSort::SpatialSort(void)__ptr64 
??0SpatialSort@Assimp@@QEAA@XZ
; public: __cdecl Assimp::SplitLargeMeshesProcess_Triangle::SplitLargeMeshesProcess_Triangle(class Assimp::SplitLargeMeshesProcess_Triangle const &__ptr64 )__ptr64 
??0SplitLargeMeshesProcess_Triangle@Assimp@@QEAA@AEBV01@@Z
; public: __cdecl Assimp::SplitLargeMeshesProcess_Triangle::SplitLargeMeshesProcess_Triangle(void)__ptr64 
??0SplitLargeMeshesProcess_Triangle@Assimp@@QEAA@XZ
; public: __cdecl Assimp::SplitLargeMeshesProcess_Vertex::SplitLargeMeshesProcess_Vertex(class Assimp::SplitLargeMeshesProcess_Vertex const &__ptr64 )__ptr64 
??0SplitLargeMeshesProcess_Vertex@Assimp@@QEAA@AEBV01@@Z
; public: __cdecl Assimp::SplitLargeMeshesProcess_Vertex::SplitLargeMeshesProcess_Vertex(void)__ptr64 
??0SplitLargeMeshesProcess_Vertex@Assimp@@QEAA@XZ
; private: __cdecl Assimp::StandardShapes::StandardShapes(void)__ptr64 
??0StandardShapes@Assimp@@AEAA@XZ
; public: __cdecl ODDLParser::StreamFormatterBase::StreamFormatterBase(class ODDLParser::StreamFormatterBase const &__ptr64 )__ptr64 
??0StreamFormatterBase@ODDLParser@@QEAA@AEBV01@@Z
; public: __cdecl ODDLParser::StreamFormatterBase::StreamFormatterBase(void)__ptr64 
??0StreamFormatterBase@ODDLParser@@QEAA@XZ
; public: __cdecl Assimp::Subdivider::Subdivider(class Assimp::Subdivider const &__ptr64 )__ptr64 
??0Subdivider@Assimp@@QEAA@AEBV01@@Z
; public: __cdecl Assimp::Subdivider::Subdivider(void)__ptr64 
??0Subdivider@Assimp@@QEAA@XZ
; public: __cdecl ODDLParser::Text::Text(char const *__ptr64,unsigned __int64)__ptr64 
??0Text@ODDLParser@@QEAA@PEBD_K@Z
; public: __cdecl Assimp::TriangulateProcess::TriangulateProcess(class Assimp::TriangulateProcess const &__ptr64 )__ptr64 
??0TriangulateProcess@Assimp@@QEAA@AEBV01@@Z
; public: __cdecl Assimp::TriangulateProcess::TriangulateProcess(void)__ptr64 
??0TriangulateProcess@Assimp@@QEAA@XZ
; public: __cdecl ODDLParser::Value::Value(enum ODDLParser::Value::ValueType)__ptr64 
??0Value@ODDLParser@@QEAA@W4ValueType@01@@Z
; public: __cdecl Assimp::VertexTriangleAdjacency::VertexTriangleAdjacency(struct aiFace *__ptr64,unsigned int,unsigned int,bool)__ptr64 
??0VertexTriangleAdjacency@Assimp@@QEAA@PEAUaiFace@@II_N@Z
; public: __cdecl aiMaterial::aiMaterial(void)__ptr64 
??0aiMaterial@@QEAA@XZ
; public: __cdecl aiNode::aiNode(struct aiNode const &__ptr64 )__ptr64 
??0aiNode@@QEAA@AEBU0@@Z
; public: __cdecl aiNode::aiNode(class std::<char,struct std::<char>,class std::<char>> const &__ptr64 )__ptr64 
??0aiNode@@QEAA@AEBV?$basic_string@DU?$char_traits@D@std@@V?$allocator@D@2@@std@@@Z
; public: __cdecl aiNode::aiNode(void)__ptr64 
??0aiNode@@QEAA@XZ
; public: __cdecl aiScene::aiScene(void)__ptr64 
??0aiScene@@QEAA@XZ
; public: virtual __cdecl Assimp::ArmaturePopulate::~ArmaturePopulate(void)__ptr64 
??1ArmaturePopulate@Assimp@@UEAA@XZ
; public: virtual __cdecl Assimp::BaseImporter::~BaseImporter(void)__ptr64 
??1BaseImporter@Assimp@@UEAA@XZ
; public: virtual __cdecl Assimp::BaseProcess::~BaseProcess(void)__ptr64 
??1BaseProcess@Assimp@@UEAA@XZ
; public: __cdecl Assimp::BatchLoader::~BatchLoader(void)__ptr64 
??1BatchLoader@Assimp@@QEAA@XZ
; public: virtual __cdecl Assimp::CalcTangentsProcess::~CalcTangentsProcess(void)__ptr64 
??1CalcTangentsProcess@Assimp@@UEAA@XZ
; public: __cdecl ODDLParser::Context::~Context(void)__ptr64 
??1Context@ODDLParser@@QEAA@XZ
; public: __cdecl ODDLParser::DDLNode::~DDLNode(void)__ptr64 
??1DDLNode@ODDLParser@@QEAA@XZ
; public: __cdecl ODDLParser::DataArrayList::~DataArrayList(void)__ptr64 
??1DataArrayList@ODDLParser@@QEAA@XZ
; public: virtual __cdecl DeadlyErrorBase::~DeadlyErrorBase(void)__ptr64 
??1DeadlyErrorBase@@UEAA@XZ
; public: virtual __cdecl DeadlyExportError::~DeadlyExportError(void)__ptr64 
??1DeadlyExportError@@UEAA@XZ
; public: virtual __cdecl DeadlyImportError::~DeadlyImportError(void)__ptr64 
??1DeadlyImportError@@UEAA@XZ
; public: virtual __cdecl Assimp::DefaultIOStream::~DefaultIOStream(void)__ptr64 
??1DefaultIOStream@Assimp@@UEAA@XZ
; public: virtual __cdecl Assimp::DefaultIOSystem::~DefaultIOSystem(void)__ptr64 
??1DefaultIOSystem@Assimp@@UEAA@XZ
; private: virtual __cdecl Assimp::DefaultLogger::~DefaultLogger(void)__ptr64 
??1DefaultLogger@Assimp@@EEAA@XZ
; public: virtual __cdecl Assimp::DropFaceNormalsProcess::~DropFaceNormalsProcess(void)__ptr64 
??1DropFaceNormalsProcess@Assimp@@UEAA@XZ
; public: virtual __cdecl Assimp::EmbedTexturesProcess::~EmbedTexturesProcess(void)__ptr64 
??1EmbedTexturesProcess@Assimp@@UEAA@XZ
; public: __cdecl Assimp::ExportProperties::~ExportProperties(void)__ptr64 
??1ExportProperties@Assimp@@QEAA@XZ
; public: __cdecl Assimp::Exporter::~Exporter(void)__ptr64 
??1Exporter@Assimp@@QEAA@XZ
; public: virtual __cdecl Assimp::FindDegeneratesProcess::~FindDegeneratesProcess(void)__ptr64 
??1FindDegeneratesProcess@Assimp@@UEAA@XZ
; public: virtual __cdecl Assimp::FindInvalidDataProcess::~FindInvalidDataProcess(void)__ptr64 
??1FindInvalidDataProcess@Assimp@@UEAA@XZ
; public: virtual __cdecl Assimp::GenBoundingBoxesProcess::~GenBoundingBoxesProcess(void)__ptr64 
??1GenBoundingBoxesProcess@Assimp@@UEAA@XZ
; public: virtual __cdecl Assimp::GenFaceNormalsProcess::~GenFaceNormalsProcess(void)__ptr64 
??1GenFaceNormalsProcess@Assimp@@UEAA@XZ
; public: virtual __cdecl Assimp::GenVertexNormalsProcess::~GenVertexNormalsProcess(void)__ptr64 
??1GenVertexNormalsProcess@Assimp@@UEAA@XZ
; public: virtual __cdecl Assimp::IOStream::~IOStream(void)__ptr64 
??1IOStream@Assimp@@UEAA@XZ
; public: virtual __cdecl ODDLParser::IOStreamBase::~IOStreamBase(void)__ptr64 
??1IOStreamBase@ODDLParser@@UEAA@XZ
; public: virtual __cdecl Assimp::IOSystem::~IOSystem(void)__ptr64 
??1IOSystem@Assimp@@UEAA@XZ
; public: __cdecl Assimp::Importer::~Importer(void)__ptr64 
??1Importer@Assimp@@QEAA@XZ
; public: __cdecl ODDLParser::Value::Iterator::~Iterator(void)__ptr64 
??1Iterator@Value@ODDLParser@@QEAA@XZ
; public: virtual __cdecl Assimp::JoinVerticesProcess::~JoinVerticesProcess(void)__ptr64 
??1JoinVerticesProcess@Assimp@@UEAA@XZ
; public: virtual __cdecl Assimp::LimitBoneWeightsProcess::~LimitBoneWeightsProcess(void)__ptr64 
??1LimitBoneWeightsProcess@Assimp@@UEAA@XZ
; public: virtual __cdecl Assimp::LogStream::~LogStream(void)__ptr64 
??1LogStream@Assimp@@UEAA@XZ
; public: virtual __cdecl Assimp::Logger::~Logger(void)__ptr64 
??1Logger@Assimp@@UEAA@XZ
; public: virtual __cdecl Assimp::MakeVerboseFormatProcess::~MakeVerboseFormatProcess(void)__ptr64 
??1MakeVerboseFormatProcess@Assimp@@UEAA@XZ
; public: __cdecl ODDLParser::Name::~Name(void)__ptr64 
??1Name@ODDLParser@@QEAA@XZ
; public: virtual __cdecl Assimp::NullLogger::~NullLogger(void)__ptr64 
??1NullLogger@Assimp@@UEAA@XZ
; public: __cdecl Assimp::ObjFileParser::~ObjFileParser(void)__ptr64 
??1ObjFileParser@Assimp@@QEAA@XZ
; public: __cdecl ODDLParser::OpenDDLExport::~OpenDDLExport(void)__ptr64 
??1OpenDDLExport@ODDLParser@@QEAA@XZ
; public: __cdecl ODDLParser::OpenDDLParser::~OpenDDLParser(void)__ptr64 
??1OpenDDLParser@ODDLParser@@QEAA@XZ
; public: virtual __cdecl Assimp::PretransformVertices::~PretransformVertices(void)__ptr64 
??1PretransformVertices@Assimp@@UEAA@XZ
; public: virtual __cdecl Assimp::ProgressHandler::~ProgressHandler(void)__ptr64 
??1ProgressHandler@Assimp@@UEAA@XZ
; public: __cdecl ODDLParser::Property::~Property(void)__ptr64 
??1Property@ODDLParser@@QEAA@XZ
; public: __cdecl ODDLParser::Reference::~Reference(void)__ptr64 
??1Reference@ODDLParser@@QEAA@XZ
; public: virtual __cdecl Assimp::RemoveRedundantMatsProcess::~RemoveRedundantMatsProcess(void)__ptr64 
??1RemoveRedundantMatsProcess@Assimp@@UEAA@XZ
; public: virtual __cdecl Assimp::RemoveVCProcess::~RemoveVCProcess(void)__ptr64 
??1RemoveVCProcess@Assimp@@UEAA@XZ
; public: __cdecl Assimp::SGSpatialSort::~SGSpatialSort(void)__ptr64 
??1SGSpatialSort@Assimp@@QEAA@XZ
; public: virtual __cdecl Assimp::SIBImporter::~SIBImporter(void)__ptr64 
??1SIBImporter@Assimp@@UEAA@XZ
; public: virtual __cdecl Assimp::SMDImporter::~SMDImporter(void)__ptr64 
??1SMDImporter@Assimp@@UEAA@XZ
; public: virtual __cdecl Assimp::ScaleProcess::~ScaleProcess(void)__ptr64 
??1ScaleProcess@Assimp@@UEAA@XZ
; private: __cdecl Assimp::SceneCombiner::~SceneCombiner(void)__ptr64 
??1SceneCombiner@Assimp@@AEAA@XZ
; public: __cdecl Assimp::SkeletonMeshBuilder::~SkeletonMeshBuilder(void)__ptr64 
??1SkeletonMeshBuilder@Assimp@@QEAA@XZ
; public: virtual __cdecl Assimp::SortByPTypeProcess::~SortByPTypeProcess(void)__ptr64 
??1SortByPTypeProcess@Assimp@@UEAA@XZ
; public: __cdecl Assimp::SpatialSort::~SpatialSort(void)__ptr64 
??1SpatialSort@Assimp@@QEAA@XZ
; public: virtual __cdecl Assimp::SplitLargeMeshesProcess_Triangle::~SplitLargeMeshesProcess_Triangle(void)__ptr64 
??1SplitLargeMeshesProcess_Triangle@Assimp@@UEAA@XZ
; public: virtual __cdecl Assimp::SplitLargeMeshesProcess_Vertex::~SplitLargeMeshesProcess_Vertex(void)__ptr64 
??1SplitLargeMeshesProcess_Vertex@Assimp@@UEAA@XZ
; public: virtual __cdecl ODDLParser::StreamFormatterBase::~StreamFormatterBase(void)__ptr64 
??1StreamFormatterBase@ODDLParser@@UEAA@XZ
; public: virtual __cdecl Assimp::Subdivider::~Subdivider(void)__ptr64 
??1Subdivider@Assimp@@UEAA@XZ
; public: __cdecl ODDLParser::Text::~Text(void)__ptr64 
??1Text@ODDLParser@@QEAA@XZ
; public: virtual __cdecl Assimp::TriangulateProcess::~TriangulateProcess(void)__ptr64 
??1TriangulateProcess@Assimp@@UEAA@XZ
; public: __cdecl ODDLParser::Value::~Value(void)__ptr64 
??1Value@ODDLParser@@QEAA@XZ
; public: __cdecl Assimp::VertexTriangleAdjacency::~VertexTriangleAdjacency(void)__ptr64 
??1VertexTriangleAdjacency@Assimp@@QEAA@XZ
; public: __cdecl aiMaterial::~aiMaterial(void)__ptr64 
??1aiMaterial@@QEAA@XZ
; public: __cdecl aiNode::~aiNode(void)__ptr64 
??1aiNode@@QEAA@XZ
; public: __cdecl aiScene::~aiScene(void)__ptr64 
??1aiScene@@QEAA@XZ
; public: static void *__ptr64 __cdecl Assimp::Intern::AllocateFromAssimpHeap::operator new(unsigned __int64)
??2AllocateFromAssimpHeap@Intern@Assimp@@SAPEAX_K@Z
; public: static void *__ptr64 __cdecl Assimp::Intern::AllocateFromAssimpHeap::operator new(unsigned __int64,struct std::nothrow_t const &__ptr64 )
??2AllocateFromAssimpHeap@Intern@Assimp@@SAPEAX_KAEBUnothrow_t@std@@@Z
; public: static void __cdecl Assimp::Intern::AllocateFromAssimpHeap::operator delete(void *__ptr64)
??3AllocateFromAssimpHeap@Intern@Assimp@@SAXPEAX@Z
; public: struct Assimp::Intern::AllocateFromAssimpHeap &__ptr64 __cdecl Assimp::Intern::AllocateFromAssimpHeap::operator =(,struct Assimp::Intern::AllocateFromAssimpHeap *__ptr64 const)__ptr64 
??4AllocateFromAssimpHeap@Intern@Assimp@@QEAAAEAU012@$$QEAU012@@Z
; public: struct Assimp::Intern::AllocateFromAssimpHeap &__ptr64 __cdecl Assimp::Intern::AllocateFromAssimpHeap::operator =(struct Assimp::Intern::AllocateFromAssimpHeap const &__ptr64 )__ptr64 
??4AllocateFromAssimpHeap@Intern@Assimp@@QEAAAEAU012@AEBU012@@Z
; public: class Assimp::ArmaturePopulate &__ptr64 __cdecl Assimp::ArmaturePopulate::operator =(class Assimp::ArmaturePopulate const &__ptr64 )__ptr64 
??4ArmaturePopulate@Assimp@@QEAAAEAV01@AEBV01@@Z
; public: class Assimp::BaseImporter &__ptr64 __cdecl Assimp::BaseImporter::operator =(class Assimp::BaseImporter const &__ptr64 )__ptr64 
??4BaseImporter@Assimp@@QEAAAEAV01@AEBV01@@Z
; public: class Assimp::BaseProcess &__ptr64 __cdecl Assimp::BaseProcess::operator =(class Assimp::BaseProcess const &__ptr64 )__ptr64 
??4BaseProcess@Assimp@@QEAAAEAV01@AEBV01@@Z
; public: class Assimp::BatchLoader &__ptr64 __cdecl Assimp::BatchLoader::operator =(class Assimp::BatchLoader const &__ptr64 )__ptr64 
??4BatchLoader@Assimp@@QEAAAEAV01@AEBV01@@Z
; public: class Assimp::Bitmap &__ptr64 __cdecl Assimp::Bitmap::operator =(,class Assimp::Bitmap *__ptr64 const)__ptr64 
??4Bitmap@Assimp@@QEAAAEAV01@$$QEAV01@@Z
; public: class Assimp::Bitmap &__ptr64 __cdecl Assimp::Bitmap::operator =(class Assimp::Bitmap const &__ptr64 )__ptr64 
??4Bitmap@Assimp@@QEAAAEAV01@AEBV01@@Z
; public: class Assimp::CalcTangentsProcess &__ptr64 __cdecl Assimp::CalcTangentsProcess::operator =(class Assimp::CalcTangentsProcess const &__ptr64 )__ptr64 
??4CalcTangentsProcess@Assimp@@QEAAAEAV01@AEBV01@@Z
; public: class Assimp::CommentRemover &__ptr64 __cdecl Assimp::CommentRemover::operator =(,class Assimp::CommentRemover *__ptr64 const)__ptr64 
??4CommentRemover@Assimp@@QEAAAEAV01@$$QEAV01@@Z
; public: class Assimp::CommentRemover &__ptr64 __cdecl Assimp::CommentRemover::operator =(class Assimp::CommentRemover const &__ptr64 )__ptr64 
??4CommentRemover@Assimp@@QEAAAEAV01@AEBV01@@Z
; public: class DeadlyErrorBase &__ptr64 __cdecl DeadlyErrorBase::operator =(,class DeadlyErrorBase *__ptr64 const)__ptr64 
??4DeadlyErrorBase@@QEAAAEAV0@$$QEAV0@@Z
; public: class DeadlyErrorBase &__ptr64 __cdecl DeadlyErrorBase::operator =(class DeadlyErrorBase const &__ptr64 )__ptr64 
??4DeadlyErrorBase@@QEAAAEAV0@AEBV0@@Z
; public: class DeadlyExportError &__ptr64 __cdecl DeadlyExportError::operator =(,class DeadlyExportError *__ptr64 const)__ptr64 
??4DeadlyExportError@@QEAAAEAV0@$$QEAV0@@Z
; public: class DeadlyExportError &__ptr64 __cdecl DeadlyExportError::operator =(class DeadlyExportError const &__ptr64 )__ptr64 
??4DeadlyExportError@@QEAAAEAV0@AEBV0@@Z
; public: class DeadlyImportError &__ptr64 __cdecl DeadlyImportError::operator =(,class DeadlyImportError *__ptr64 const)__ptr64 
??4DeadlyImportError@@QEAAAEAV0@$$QEAV0@@Z
; public: class DeadlyImportError &__ptr64 __cdecl DeadlyImportError::operator =(class DeadlyImportError const &__ptr64 )__ptr64 
??4DeadlyImportError@@QEAAAEAV0@AEBV0@@Z
; public: class Assimp::DefaultIOStream &__ptr64 __cdecl Assimp::DefaultIOStream::operator =(class Assimp::DefaultIOStream const &__ptr64 )__ptr64 
??4DefaultIOStream@Assimp@@QEAAAEAV01@AEBV01@@Z
; public: class Assimp::DefaultIOSystem &__ptr64 __cdecl Assimp::DefaultIOSystem::operator =(,class Assimp::DefaultIOSystem *__ptr64 const)__ptr64 
??4DefaultIOSystem@Assimp@@QEAAAEAV01@$$QEAV01@@Z
; public: class Assimp::DefaultIOSystem &__ptr64 __cdecl Assimp::DefaultIOSystem::operator =(class Assimp::DefaultIOSystem const &__ptr64 )__ptr64 
??4DefaultIOSystem@Assimp@@QEAAAEAV01@AEBV01@@Z
; public: class Assimp::DefaultLogger &__ptr64 __cdecl Assimp::DefaultLogger::operator =(class Assimp::DefaultLogger const &__ptr64 )__ptr64 
??4DefaultLogger@Assimp@@QEAAAEAV01@AEBV01@@Z
; public: class Assimp::DropFaceNormalsProcess &__ptr64 __cdecl Assimp::DropFaceNormalsProcess::operator =(class Assimp::DropFaceNormalsProcess const &__ptr64 )__ptr64 
??4DropFaceNormalsProcess@Assimp@@QEAAAEAV01@AEBV01@@Z
; public: class Assimp::EmbedTexturesProcess &__ptr64 __cdecl Assimp::EmbedTexturesProcess::operator =(class Assimp::EmbedTexturesProcess const &__ptr64 )__ptr64 
??4EmbedTexturesProcess@Assimp@@QEAAAEAV01@AEBV01@@Z
; public: class Assimp::ExportProperties &__ptr64 __cdecl Assimp::ExportProperties::operator =(class Assimp::ExportProperties const &__ptr64 )__ptr64 
??4ExportProperties@Assimp@@QEAAAEAV01@AEBV01@@Z
; public: class Assimp::Exporter &__ptr64 __cdecl Assimp::Exporter::operator =(class Assimp::Exporter const &__ptr64 )__ptr64 
??4Exporter@Assimp@@QEAAAEAV01@AEBV01@@Z
; public: class Assimp::FindDegeneratesProcess &__ptr64 __cdecl Assimp::FindDegeneratesProcess::operator =(class Assimp::FindDegeneratesProcess const &__ptr64 )__ptr64 
??4FindDegeneratesProcess@Assimp@@QEAAAEAV01@AEBV01@@Z
; public: class Assimp::FindInvalidDataProcess &__ptr64 __cdecl Assimp::FindInvalidDataProcess::operator =(class Assimp::FindInvalidDataProcess const &__ptr64 )__ptr64 
??4FindInvalidDataProcess@Assimp@@QEAAAEAV01@AEBV01@@Z
; public: class Assimp::GenBoundingBoxesProcess &__ptr64 __cdecl Assimp::GenBoundingBoxesProcess::operator =(class Assimp::GenBoundingBoxesProcess const &__ptr64 )__ptr64 
??4GenBoundingBoxesProcess@Assimp@@QEAAAEAV01@AEBV01@@Z
; public: class Assimp::GenFaceNormalsProcess &__ptr64 __cdecl Assimp::GenFaceNormalsProcess::operator =(class Assimp::GenFaceNormalsProcess const &__ptr64 )__ptr64 
??4GenFaceNormalsProcess@Assimp@@QEAAAEAV01@AEBV01@@Z
; public: class Assimp::GenVertexNormalsProcess &__ptr64 __cdecl Assimp::GenVertexNormalsProcess::operator =(class Assimp::GenVertexNormalsProcess const &__ptr64 )__ptr64 
??4GenVertexNormalsProcess@Assimp@@QEAAAEAV01@AEBV01@@Z
; public: class Assimp::IOStream &__ptr64 __cdecl Assimp::IOStream::operator =(class Assimp::IOStream const &__ptr64 )__ptr64 
??4IOStream@Assimp@@QEAAAEAV01@AEBV01@@Z
; public: class ODDLParser::IOStreamBase &__ptr64 __cdecl ODDLParser::IOStreamBase::operator =(class ODDLParser::IOStreamBase const &__ptr64 )__ptr64 
??4IOStreamBase@ODDLParser@@QEAAAEAV01@AEBV01@@Z
; public: class Assimp::IOSystem &__ptr64 __cdecl Assimp::IOSystem::operator =(class Assimp::IOSystem const &__ptr64 )__ptr64 
??4IOSystem@Assimp@@QEAAAEAV01@AEBV01@@Z
; public: class Assimp::JoinVerticesProcess &__ptr64 __cdecl Assimp::JoinVerticesProcess::operator =(class Assimp::JoinVerticesProcess const &__ptr64 )__ptr64 
??4JoinVerticesProcess@Assimp@@QEAAAEAV01@AEBV01@@Z
; public: class Assimp::LimitBoneWeightsProcess &__ptr64 __cdecl Assimp::LimitBoneWeightsProcess::operator =(class Assimp::LimitBoneWeightsProcess const &__ptr64 )__ptr64 
??4LimitBoneWeightsProcess@Assimp@@QEAAAEAV01@AEBV01@@Z
; public: class Assimp::LogStream &__ptr64 __cdecl Assimp::LogStream::operator =(class Assimp::LogStream const &__ptr64 )__ptr64 
??4LogStream@Assimp@@QEAAAEAV01@AEBV01@@Z
; public: class Assimp::Logger &__ptr64 __cdecl Assimp::Logger::operator =(class Assimp::Logger const &__ptr64 )__ptr64 
??4Logger@Assimp@@QEAAAEAV01@AEBV01@@Z
; public: class Assimp::MakeVerboseFormatProcess &__ptr64 __cdecl Assimp::MakeVerboseFormatProcess::operator =(class Assimp::MakeVerboseFormatProcess const &__ptr64 )__ptr64 
??4MakeVerboseFormatProcess@Assimp@@QEAAAEAV01@AEBV01@@Z
; public: class Assimp::NullLogger &__ptr64 __cdecl Assimp::NullLogger::operator =(,class Assimp::NullLogger *__ptr64 const)__ptr64 
??4NullLogger@Assimp@@QEAAAEAV01@$$QEAV01@@Z
; public: class Assimp::NullLogger &__ptr64 __cdecl Assimp::NullLogger::operator =(class Assimp::NullLogger const &__ptr64 )__ptr64 
??4NullLogger@Assimp@@QEAAAEAV01@AEBV01@@Z
; public: class Assimp::PretransformVertices &__ptr64 __cdecl Assimp::PretransformVertices::operator =(class Assimp::PretransformVertices const &__ptr64 )__ptr64 
??4PretransformVertices@Assimp@@QEAAAEAV01@AEBV01@@Z
; public: class Assimp::ProgressHandler &__ptr64 __cdecl Assimp::ProgressHandler::operator =(class Assimp::ProgressHandler const &__ptr64 )__ptr64 
??4ProgressHandler@Assimp@@QEAAAEAV01@AEBV01@@Z
; public: class Assimp::RemoveRedundantMatsProcess &__ptr64 __cdecl Assimp::RemoveRedundantMatsProcess::operator =(class Assimp::RemoveRedundantMatsProcess const &__ptr64 )__ptr64 
??4RemoveRedundantMatsProcess@Assimp@@QEAAAEAV01@AEBV01@@Z
; public: class Assimp::RemoveVCProcess &__ptr64 __cdecl Assimp::RemoveVCProcess::operator =(class Assimp::RemoveVCProcess const &__ptr64 )__ptr64 
??4RemoveVCProcess@Assimp@@QEAAAEAV01@AEBV01@@Z
; public: class Assimp::SGSpatialSort &__ptr64 __cdecl Assimp::SGSpatialSort::operator =(class Assimp::SGSpatialSort const &__ptr64 )__ptr64 
??4SGSpatialSort@Assimp@@QEAAAEAV01@AEBV01@@Z
; public: class Assimp::SIBImporter &__ptr64 __cdecl Assimp::SIBImporter::operator =(class Assimp::SIBImporter const &__ptr64 )__ptr64 
??4SIBImporter@Assimp@@QEAAAEAV01@AEBV01@@Z
; public: class Assimp::SMDImporter &__ptr64 __cdecl Assimp::SMDImporter::operator =(class Assimp::SMDImporter const &__ptr64 )__ptr64 
??4SMDImporter@Assimp@@QEAAAEAV01@AEBV01@@Z
; public: class Assimp::ScaleProcess &__ptr64 __cdecl Assimp::ScaleProcess::operator =(class Assimp::ScaleProcess const &__ptr64 )__ptr64 
??4ScaleProcess@Assimp@@QEAAAEAV01@AEBV01@@Z
; public: class Assimp::SceneCombiner &__ptr64 __cdecl Assimp::SceneCombiner::operator =(class Assimp::SceneCombiner const &__ptr64 )__ptr64 
??4SceneCombiner@Assimp@@QEAAAEAV01@AEBV01@@Z
; public: class Assimp::ScenePreprocessor &__ptr64 __cdecl Assimp::ScenePreprocessor::operator =(,class Assimp::ScenePreprocessor *__ptr64 const)__ptr64 
??4ScenePreprocessor@Assimp@@QEAAAEAV01@$$QEAV01@@Z
; public: class Assimp::ScenePreprocessor &__ptr64 __cdecl Assimp::ScenePreprocessor::operator =(class Assimp::ScenePreprocessor const &__ptr64 )__ptr64 
??4ScenePreprocessor@Assimp@@QEAAAEAV01@AEBV01@@Z
; public: class Assimp::SkeletonMeshBuilder &__ptr64 __cdecl Assimp::SkeletonMeshBuilder::operator =(,class Assimp::SkeletonMeshBuilder *__ptr64 const)__ptr64 
??4SkeletonMeshBuilder@Assimp@@QEAAAEAV01@$$QEAV01@@Z
; public: class Assimp::SkeletonMeshBuilder &__ptr64 __cdecl Assimp::SkeletonMeshBuilder::operator =(class Assimp::SkeletonMeshBuilder const &__ptr64 )__ptr64 
??4SkeletonMeshBuilder@Assimp@@QEAAAEAV01@AEBV01@@Z
; public: class Assimp::SortByPTypeProcess &__ptr64 __cdecl Assimp::SortByPTypeProcess::operator =(class Assimp::SortByPTypeProcess const &__ptr64 )__ptr64 
??4SortByPTypeProcess@Assimp@@QEAAAEAV01@AEBV01@@Z
; public: class Assimp::SpatialSort &__ptr64 __cdecl Assimp::SpatialSort::operator =(class Assimp::SpatialSort const &__ptr64 )__ptr64 
??4SpatialSort@Assimp@@QEAAAEAV01@AEBV01@@Z
; public: class Assimp::SplitLargeMeshesProcess_Triangle &__ptr64 __cdecl Assimp::SplitLargeMeshesProcess_Triangle::operator =(class Assimp::SplitLargeMeshesProcess_Triangle const &__ptr64 )__ptr64 
??4SplitLargeMeshesProcess_Triangle@Assimp@@QEAAAEAV01@AEBV01@@Z
; public: class Assimp::SplitLargeMeshesProcess_Vertex &__ptr64 __cdecl Assimp::SplitLargeMeshesProcess_Vertex::operator =(class Assimp::SplitLargeMeshesProcess_Vertex const &__ptr64 )__ptr64 
??4SplitLargeMeshesProcess_Vertex@Assimp@@QEAAAEAV01@AEBV01@@Z
; public: class Assimp::StandardShapes &__ptr64 __cdecl Assimp::StandardShapes::operator =(,class Assimp::StandardShapes *__ptr64 const)__ptr64 
??4StandardShapes@Assimp@@QEAAAEAV01@$$QEAV01@@Z
; public: class Assimp::StandardShapes &__ptr64 __cdecl Assimp::StandardShapes::operator =(class Assimp::StandardShapes const &__ptr64 )__ptr64 
??4StandardShapes@Assimp@@QEAAAEAV01@AEBV01@@Z
; public: class ODDLParser::StreamFormatterBase &__ptr64 __cdecl ODDLParser::StreamFormatterBase::operator =(class ODDLParser::StreamFormatterBase const &__ptr64 )__ptr64 
??4StreamFormatterBase@ODDLParser@@QEAAAEAV01@AEBV01@@Z
; public: class Assimp::Subdivider &__ptr64 __cdecl Assimp::Subdivider::operator =(class Assimp::Subdivider const &__ptr64 )__ptr64 
??4Subdivider@Assimp@@QEAAAEAV01@AEBV01@@Z
; public: class Assimp::TriangulateProcess &__ptr64 __cdecl Assimp::TriangulateProcess::operator =(class Assimp::TriangulateProcess const &__ptr64 )__ptr64 
??4TriangulateProcess@Assimp@@QEAAAEAV01@AEBV01@@Z
; public: class Assimp::VertexTriangleAdjacency &__ptr64 __cdecl Assimp::VertexTriangleAdjacency::operator =(class Assimp::VertexTriangleAdjacency const &__ptr64 )__ptr64 
??4VertexTriangleAdjacency@Assimp@@QEAAAEAV01@AEBV01@@Z
; public: struct aiMaterial &__ptr64 __cdecl aiMaterial::operator =(struct aiMaterial const &__ptr64 )__ptr64 
??4aiMaterial@@QEAAAEAU0@AEBU0@@Z
; public: struct aiNode &__ptr64 __cdecl aiNode::operator =(struct aiNode const &__ptr64 )__ptr64 
??4aiNode@@QEAAAEAU0@AEBU0@@Z
; public: bool __cdecl ODDLParser::Value::Iterator::operator ==(class ODDLParser::Value::Iterator const &__ptr64 )const __ptr64 
??8Iterator@Value@ODDLParser@@QEBA_NAEBV012@@Z
; public: bool __cdecl ODDLParser::Text::operator ==(struct ODDLParser::Text const &__ptr64 )const __ptr64 
??8Text@ODDLParser@@QEBA_NAEBU01@@Z
; public: bool __cdecl ODDLParser::Text::operator ==(class std::<char,struct std::<char>,class std::<char>> const &__ptr64 )const __ptr64 
??8Text@ODDLParser@@QEBA_NAEBV?$basic_string@DU?$char_traits@D@std@@V?$allocator@D@2@@std@@@Z
; public: class ODDLParser::Value *__ptr64 __cdecl ODDLParser::Value::Iterator::operator ->(void)const __ptr64 
??CIterator@Value@ODDLParser@@QEBAPEAV12@XZ
; public: class ODDLParser::Value::Iterator const __cdecl ODDLParser::Value::Iterator::operator ++(int)__ptr64 
??EIterator@Value@ODDLParser@@QEAA?BV012@H@Z
; public: class ODDLParser::Value::Iterator &__ptr64 __cdecl ODDLParser::Value::Iterator::operator ++(void)__ptr64 
??EIterator@Value@ODDLParser@@QEAAAEAV012@XZ
; const Assimp::ArmaturePopulate::$vftable
??_7ArmaturePopulate@Assimp@@6B@ DATA
; const Assimp::BaseImporter::$vftable
??_7BaseImporter@Assimp@@6B@ DATA
; const Assimp::BaseProcess::$vftable
??_7BaseProcess@Assimp@@6B@ DATA
; const Assimp::CalcTangentsProcess::$vftable
??_7CalcTangentsProcess@Assimp@@6B@ DATA
; const DeadlyErrorBase::$vftable
??_7DeadlyErrorBase@@6B@ DATA
; const DeadlyExportError::$vftable
??_7DeadlyExportError@@6B@ DATA
; const DeadlyImportError::$vftable
??_7DeadlyImportError@@6B@ DATA
; const Assimp::DefaultIOStream::$vftable
??_7DefaultIOStream@Assimp@@6B@ DATA
; const Assimp::DefaultIOSystem::$vftable
??_7DefaultIOSystem@Assimp@@6B@ DATA
; const Assimp::DefaultLogger::$vftable
??_7DefaultLogger@Assimp@@6B@ DATA
; const Assimp::DropFaceNormalsProcess::$vftable
??_7DropFaceNormalsProcess@Assimp@@6B@ DATA
; const Assimp::EmbedTexturesProcess::$vftable
??_7EmbedTexturesProcess@Assimp@@6B@ DATA
; const Assimp::FindDegeneratesProcess::$vftable
??_7FindDegeneratesProcess@Assimp@@6B@ DATA
; const Assimp::FindInvalidDataProcess::$vftable
??_7FindInvalidDataProcess@Assimp@@6B@ DATA
; const Assimp::GenBoundingBoxesProcess::$vftable
??_7GenBoundingBoxesProcess@Assimp@@6B@ DATA
; const Assimp::GenFaceNormalsProcess::$vftable
??_7GenFaceNormalsProcess@Assimp@@6B@ DATA
; const Assimp::GenVertexNormalsProcess::$vftable
??_7GenVertexNormalsProcess@Assimp@@6B@ DATA
; const Assimp::IOStream::$vftable
??_7IOStream@Assimp@@6B@ DATA
; const ODDLParser::IOStreamBase::$vftable
??_7IOStreamBase@ODDLParser@@6B@ DATA
; const Assimp::IOSystem::$vftable
??_7IOSystem@Assimp@@6B@ DATA
; const Assimp::JoinVerticesProcess::$vftable
??_7JoinVerticesProcess@Assimp@@6B@ DATA
; const Assimp::LimitBoneWeightsProcess::$vftable
??_7LimitBoneWeightsProcess@Assimp@@6B@ DATA
; const Assimp::LogStream::$vftable
??_7LogStream@Assimp@@6B@ DATA
; const Assimp::Logger::$vftable
??_7Logger@Assimp@@6B@ DATA
; const Assimp::MakeVerboseFormatProcess::$vftable
??_7MakeVerboseFormatProcess@Assimp@@6B@ DATA
; const Assimp::NullLogger::$vftable
??_7NullLogger@Assimp@@6B@ DATA
; const Assimp::PretransformVertices::$vftable
??_7PretransformVertices@Assimp@@6B@ DATA
; const Assimp::ProgressHandler::$vftable
??_7ProgressHandler@Assimp@@6B@ DATA
; const Assimp::RemoveRedundantMatsProcess::$vftable
??_7RemoveRedundantMatsProcess@Assimp@@6B@ DATA
; const Assimp::RemoveVCProcess::$vftable
??_7RemoveVCProcess@Assimp@@6B@ DATA
; const Assimp::SIBImporter::$vftable
??_7SIBImporter@Assimp@@6B@ DATA
; const Assimp::SMDImporter::$vftable
??_7SMDImporter@Assimp@@6B@ DATA
; const Assimp::ScaleProcess::$vftable
??_7ScaleProcess@Assimp@@6B@ DATA
; const Assimp::SortByPTypeProcess::$vftable
??_7SortByPTypeProcess@Assimp@@6B@ DATA
; const Assimp::SplitLargeMeshesProcess_Triangle::$vftable
??_7SplitLargeMeshesProcess_Triangle@Assimp@@6B@ DATA
; const Assimp::SplitLargeMeshesProcess_Vertex::$vftable
??_7SplitLargeMeshesProcess_Vertex@Assimp@@6B@ DATA
; const ODDLParser::StreamFormatterBase::$vftable
??_7StreamFormatterBase@ODDLParser@@6B@ DATA
; const Assimp::Subdivider::$vftable
??_7Subdivider@Assimp@@6B@ DATA
; const Assimp::TriangulateProcess::$vftable
??_7TriangulateProcess@Assimp@@6B@ DATA
; public: void __cdecl ODDLParser::IOStreamBase::__dflt_ctor_closure(void)__ptr64 
??_FIOStreamBase@ODDLParser@@QEAAXXZ
; public: void __cdecl ODDLParser::OpenDDLExport::__dflt_ctor_closure(void)__ptr64 
??_FOpenDDLExport@ODDLParser@@QEAAXXZ
; public: static void *__ptr64 __cdecl Assimp::Intern::AllocateFromAssimpHeap::operator new[](unsigned __int64)
??_UAllocateFromAssimpHeap@Intern@Assimp@@SAPEAX_K@Z
; public: static void *__ptr64 __cdecl Assimp::Intern::AllocateFromAssimpHeap::operator new[](unsigned __int64,struct std::nothrow_t const &__ptr64 )
??_UAllocateFromAssimpHeap@Intern@Assimp@@SAPEAX_KAEBUnothrow_t@std@@@Z
; public: static void __cdecl Assimp::Intern::AllocateFromAssimpHeap::operator delete[](void *__ptr64)
??_VAllocateFromAssimpHeap@Intern@Assimp@@SAXPEAX@Z
; public: void __cdecl Assimp::SGSpatialSort::Add(class <float> const &__ptr64 ,unsigned int,unsigned int)__ptr64 
?Add@SGSpatialSort@Assimp@@QEAAXAEBV?$aiVector3t@M@@II@Z
; public: enum aiReturn __cdecl aiMaterial::AddBinaryProperty(void const *__ptr64,unsigned int,char const *__ptr64,unsigned int,unsigned int,enum aiPropertyTypeInfo)__ptr64 
?AddBinaryProperty@aiMaterial@@QEAA?AW4aiReturn@@PEBXIPEBDIIW4aiPropertyTypeInfo@@@Z
; protected: void __cdecl Assimp::SMDImporter::AddBoneChildren(struct aiNode *__ptr64,unsigned int)__ptr64 
?AddBoneChildren@SMDImporter@Assimp@@IEAAXPEAUaiNode@@I@Z
; public: unsigned int __cdecl Assimp::BatchLoader::AddLoadRequest(class std::<char,struct std::<char>,class std::<char>> const &__ptr64 ,unsigned int,struct Assimp::BatchLoader::PropertyMap const *__ptr64)__ptr64 
?AddLoadRequest@BatchLoader@Assimp@@QEAAIAEBV?$basic_string@DU?$char_traits@D@std@@V?$allocator@D@2@@std@@IPEBUPropertyMap@12@@Z
; private: static void __cdecl Assimp::SceneCombiner::AddNodeHashes(struct aiNode *__ptr64,class std::<unsigned int,struct std::<unsigned int>,class std::<unsigned int>> &__ptr64 )
?AddNodeHashes@SceneCombiner@Assimp@@CAXPEAUaiNode@@AEAV?$set@IU?$less@I@std@@V?$allocator@I@2@@std@@@Z
; public: static void __cdecl Assimp::SceneCombiner::AddNodePrefixes(struct aiNode *__ptr64,char const *__ptr64,unsigned int)
?AddNodePrefixes@SceneCombiner@Assimp@@SAXPEAUaiNode@@PEBDI@Z
; private: static void __cdecl Assimp::SceneCombiner::AddNodePrefixesChecked(struct aiNode *__ptr64,char const *__ptr64,unsigned int,class std::<struct Assimp::SceneHelper,class std::<struct Assimp::SceneHelper>> &__ptr64 ,unsigned int)
?AddNodePrefixesChecked@SceneCombiner@Assimp@@CAXPEAUaiNode@@PEBDIAEAV?$vector@USceneHelper@Assimp@@V?$allocator@USceneHelper@Assimp@@@std@@@std@@I@Z
; public: enum aiReturn __cdecl aiMaterial::AddProperty(int const *__ptr64,unsigned int,char const *__ptr64,unsigned int,unsigned int)__ptr64 
?AddProperty@aiMaterial@@QEAA?AW4aiReturn@@PEBHIPEBDII@Z
; public: enum aiReturn __cdecl aiMaterial::AddProperty(float const *__ptr64,unsigned int,char const *__ptr64,unsigned int,unsigned int)__ptr64 
?AddProperty@aiMaterial@@QEAA?AW4aiReturn@@PEBMIPEBDII@Z
; public: enum aiReturn __cdecl aiMaterial::AddProperty(double const *__ptr64,unsigned int,char const *__ptr64,unsigned int,unsigned int)__ptr64 
?AddProperty@aiMaterial@@QEAA?AW4aiReturn@@PEBNIPEBDII@Z
; public: enum aiReturn __cdecl aiMaterial::AddProperty(struct aiColor3D const *__ptr64,unsigned int,char const *__ptr64,unsigned int,unsigned int)__ptr64 
?AddProperty@aiMaterial@@QEAA?AW4aiReturn@@PEBUaiColor3D@@IPEBDII@Z
; public: enum aiReturn __cdecl aiMaterial::AddProperty(struct aiString const *__ptr64,char const *__ptr64,unsigned int,unsigned int)__ptr64 
?AddProperty@aiMaterial@@QEAA?AW4aiReturn@@PEBUaiString@@PEBDII@Z
; public: enum aiReturn __cdecl aiMaterial::AddProperty(struct aiUVTransform const *__ptr64,unsigned int,char const *__ptr64,unsigned int,unsigned int)__ptr64 
?AddProperty@aiMaterial@@QEAA?AW4aiReturn@@PEBUaiUVTransform@@IPEBDII@Z
; public: enum aiReturn __cdecl aiMaterial::AddProperty(class <float> const *__ptr64,unsigned int,char const *__ptr64,unsigned int,unsigned int)__ptr64 
?AddProperty@aiMaterial@@QEAA?AW4aiReturn@@PEBV?$aiColor4t@M@@IPEBDII@Z
; public: enum aiReturn __cdecl aiMaterial::AddProperty(class <float> const *__ptr64,unsigned int,char const *__ptr64,unsigned int,unsigned int)__ptr64 
?AddProperty@aiMaterial@@QEAA?AW4aiReturn@@PEBV?$aiVector3t@M@@IPEBDII@Z
; public: void __cdecl Assimp::SpatialSort::Append(class <float> const *__ptr64,unsigned int,unsigned int,bool)__ptr64 
?Append@SpatialSort@Assimp@@QEAAXPEBV?$aiVector3t@M@@II_N@Z
; public: struct aiScene const *__ptr64 __cdecl Assimp::Importer::ApplyCustomizedPostProcessing(class Assimp::BaseProcess *__ptr64,bool)__ptr64 
?ApplyCustomizedPostProcessing@Importer@Assimp@@QEAAPEBUaiScene@@PEAVBaseProcess@2@_N@Z
; public: struct aiScene const *__ptr64 __cdecl Assimp::Importer::ApplyPostProcessing(unsigned int)__ptr64 
?ApplyPostProcessing@Importer@Assimp@@QEAAPEBUaiScene@@I@Z
; private: void __cdecl Assimp::PretransformVertices::ApplyTransform(struct aiMesh *__ptr64,class <float> const &__ptr64 )const __ptr64 
?ApplyTransform@PretransformVertices@Assimp@@AEBAXPEAUaiMesh@@AEBV?$aiMatrix4x4t@M@@@Z
; public: static void __cdecl Assimp::SceneCombiner::AttachToGraph(struct aiNode *__ptr64,class std::<struct Assimp::NodeAttachmentInfo,class std::<struct Assimp::NodeAttachmentInfo>> &__ptr64 )
?AttachToGraph@SceneCombiner@Assimp@@SAXPEAUaiNode@@AEAV?$vector@UNodeAttachmentInfo@Assimp@@V?$allocator@UNodeAttachmentInfo@Assimp@@@std@@@std@@@Z
; public: static void __cdecl Assimp::SceneCombiner::AttachToGraph(struct aiScene *__ptr64,class std::<struct Assimp::NodeAttachmentInfo,class std::<struct Assimp::NodeAttachmentInfo>> &__ptr64 )
?AttachToGraph@SceneCombiner@Assimp@@SAXPEAUaiScene@@AEAV?$vector@UNodeAttachmentInfo@Assimp@@V?$allocator@UNodeAttachmentInfo@Assimp@@@std@@@std@@@Z
; public: static unsigned __int64 const Assimp::ObjFileParser::Buffersize
?Buffersize@ObjFileParser@Assimp@@2_KB DATA
; public: static void __cdecl Assimp::ArmaturePopulate::BuildBoneList(struct aiNode *__ptr64,struct aiNode const *__ptr64,struct aiScene const *__ptr64,class std::<struct aiBone *__ptr64,class std::<struct aiBone *__ptr64>> &__ptr64 )
?BuildBoneList@ArmaturePopulate@Assimp@@SAXPEAUaiNode@@PEBU3@PEBUaiScene@@AEAV?$vector@PEAUaiBone@@V?$allocator@PEAUaiBone@@@std@@@std@@@Z
; public: static void __cdecl Assimp::ArmaturePopulate::BuildBoneStack(struct aiNode *__ptr64,struct aiNode const *__ptr64,struct aiScene const *__ptr64,class std::<struct aiBone *__ptr64,class std::<struct aiBone *__ptr64>> const &__ptr64 ,class std::<struct aiBone *__ptr64,struct aiNode *__ptr64,struct std::<struct aiBone *__ptr64>,class std::<struct std::<struct aiBone *__ptr64 const,struct aiNode *__ptr64>>> &__ptr64 ,class std::<struct aiNode *__ptr64,class std::<struct aiNode *__ptr64>> &__ptr64 )
?BuildBoneStack@ArmaturePopulate@Assimp@@SAXPEAUaiNode@@PEBU3@PEBUaiScene@@AEBV?$vector@PEAUaiBone@@V?$allocator@PEAUaiBone@@@std@@@std@@AEAV?$map@PEAUaiBone@@PEAUaiNode@@U?$less@PEAUaiBone@@@std@@V?$allocator@U?$pair@QEAUaiBone@@PEAUaiNode@@@std@@@4@@6@AEAV?$vector@PEAUaiNode@@V?$allocator@PEAUaiNode@@@std@@@6@@Z
; private: void __cdecl Assimp::PretransformVertices::BuildMeshRefCountArray(struct aiNode const *__ptr64,unsigned int *__ptr64)const __ptr64 
?BuildMeshRefCountArray@PretransformVertices@Assimp@@AEBAXPEBUaiNode@@PEAI@Z
; public: static void __cdecl Assimp::ArmaturePopulate::BuildNodeList(struct aiNode const *__ptr64,class std::<struct aiNode *__ptr64,class std::<struct aiNode *__ptr64>> &__ptr64 )
?BuildNodeList@ArmaturePopulate@Assimp@@SAXPEBUaiNode@@AEAV?$vector@PEAUaiNode@@V?$allocator@PEAUaiNode@@@std@@@std@@@Z
; public: static void __cdecl Assimp::SceneCombiner::BuildUniqueBoneList(class std::<struct Assimp::BoneWithHash,class std::<struct Assimp::BoneWithHash>> &__ptr64 ,class std::<class std::<struct std::<struct aiMesh *__ptr64>>>,class std::<class std::<struct std::<struct aiMesh *__ptr64>>>)
?BuildUniqueBoneList@SceneCombiner@Assimp@@SAXAEAV?$list@UBoneWithHash@Assimp@@V?$allocator@UBoneWithHash@Assimp@@@std@@@std@@V?$_Vector_const_iterator@V?$_Vector_val@U?$_Simple_types@PEAUaiMesh@@@std@@@std@@@4@1@Z
; private: void __cdecl Assimp::PretransformVertices::BuildWCSMeshes(class std::<struct aiMesh *__ptr64,class std::<struct aiMesh *__ptr64>> &__ptr64 ,struct aiMesh *__ptr64 *__ptr64,unsigned int,struct aiNode *__ptr64)const __ptr64 
?BuildWCSMeshes@PretransformVertices@Assimp@@AEBAXAEAV?$vector@PEAUaiMesh@@V?$allocator@PEAUaiMesh@@@std@@@std@@PEAPEAUaiMesh@@IPEAUaiNode@@@Z
; bool __cdecl Assimp::CPUSupportsSSE2(void)
?CPUSupportsSSE2@Assimp@@YA_NXZ
; protected: float __cdecl Assimp::SpatialSort::CalculateDistance(class <float> const &__ptr64 )const __ptr64 
?CalculateDistance@SpatialSort@Assimp@@IEBAMAEBV?$aiVector3t@M@@@Z
; public: virtual bool __cdecl Assimp::SIBImporter::CanRead(class std::<char,struct std::<char>,class std::<char>> const &__ptr64 ,class Assimp::IOSystem *__ptr64,bool)const __ptr64 
?CanRead@SIBImporter@Assimp@@UEBA_NAEBV?$basic_string@DU?$char_traits@D@std@@V?$allocator@D@2@@std@@PEAVIOSystem@2@_N@Z
; public: virtual bool __cdecl Assimp::SMDImporter::CanRead(class std::<char,struct std::<char>,class std::<char>> const &__ptr64 ,class Assimp::IOSystem *__ptr64,bool)const __ptr64 
?CanRead@SMDImporter@Assimp@@UEBA_NAEBV?$basic_string@DU?$char_traits@D@std@@V?$allocator@D@2@@std@@PEAVIOSystem@2@_N@Z
; public: virtual bool __cdecl Assimp::IOSystem::ChangeDirectory(class std::<char,struct std::<char>,class std::<char>> const &__ptr64 )__ptr64 
?ChangeDirectory@IOSystem@Assimp@@UEAA_NAEBV?$basic_string@DU?$char_traits@D@std@@V?$allocator@D@2@@std@@@Z
; public: static bool __cdecl Assimp::BaseImporter::CheckMagicToken(class Assimp::IOSystem *__ptr64,class std::<char,struct std::<char>,class std::<char>> const &__ptr64 ,void const *__ptr64,unsigned __int64,unsigned int,unsigned int)
?CheckMagicToken@BaseImporter@Assimp@@SA_NPEAVIOSystem@2@AEBV?$basic_string@DU?$char_traits@D@std@@V?$allocator@D@2@@std@@PEBX_KII@Z
; public: void __cdecl aiMaterial::Clear(void)__ptr64 
?Clear@aiMaterial@@QEAAXXZ
; public: virtual void __cdecl Assimp::DefaultIOSystem::Close(class Assimp::IOStream *__ptr64)__ptr64 
?Close@DefaultIOSystem@Assimp@@UEAAXPEAVIOStream@2@@Z
; private: void __cdecl Assimp::PretransformVertices::CollectData(struct aiScene const *__ptr64,struct aiNode const *__ptr64,unsigned int,unsigned int,struct aiMesh *__ptr64,unsigned int *__ptr64 const,unsigned int *__ptr64)const __ptr64 
?CollectData@PretransformVertices@Assimp@@AEBAXPEBUaiScene@@PEBUaiNode@@IIPEAUaiMesh@@QEAIPEAI@Z
; public: virtual bool __cdecl Assimp::DefaultIOSystem::ComparePaths(char const *__ptr64,char const *__ptr64)const __ptr64 
?ComparePaths@DefaultIOSystem@Assimp@@UEBA_NPEBD0@Z
; public: bool __cdecl Assimp::IOSystem::ComparePaths(class std::<char,struct std::<char>,class std::<char>> const &__ptr64 ,class std::<char,struct std::<char>,class std::<char>> const &__ptr64 )const __ptr64 
?ComparePaths@IOSystem@Assimp@@QEBA_NAEBV?$basic_string@DU?$char_traits@D@std@@V?$allocator@D@2@@std@@0@Z
; public: virtual bool __cdecl Assimp::IOSystem::ComparePaths(char const *__ptr64,char const *__ptr64)const __ptr64 
?ComparePaths@IOSystem@Assimp@@UEBA_NPEBD0@Z
; private: void __cdecl Assimp::PretransformVertices::ComputeAbsoluteTransform(struct aiNode *__ptr64)__ptr64 
?ComputeAbsoluteTransform@PretransformVertices@Assimp@@AEAAXPEAUaiNode@@@Z
; public: static void __cdecl Assimp::BaseImporter::ConvertToUTF8(class std::<char,class std::<char>> &__ptr64 )
?ConvertToUTF8@BaseImporter@Assimp@@SAXAEAV?$vector@DV?$allocator@D@std@@@std@@@Z
; public: static void __cdecl Assimp::BaseImporter::ConvertUTF8toISO8859_1(class std::<char,struct std::<char>,class std::<char>> &__ptr64 )
?ConvertUTF8toISO8859_1@BaseImporter@Assimp@@SAXAEAV?$basic_string@DU?$char_traits@D@std@@V?$allocator@D@2@@std@@@Z
; public: static void __cdecl Assimp::SceneCombiner::Copy(struct aiAnimMesh *__ptr64 *__ptr64,struct aiAnimMesh const *__ptr64)
?Copy@SceneCombiner@Assimp@@SAXPEAPEAUaiAnimMesh@@PEBU3@@Z
; public: static void __cdecl Assimp::SceneCombiner::Copy(struct aiAnimation *__ptr64 *__ptr64,struct aiAnimation const *__ptr64)
?Copy@SceneCombiner@Assimp@@SAXPEAPEAUaiAnimation@@PEBU3@@Z
; public: static void __cdecl Assimp::SceneCombiner::Copy(struct aiBone *__ptr64 *__ptr64,struct aiBone const *__ptr64)
?Copy@SceneCombiner@Assimp@@SAXPEAPEAUaiBone@@PEBU3@@Z
; public: static void __cdecl Assimp::SceneCombiner::Copy(struct aiCamera *__ptr64 *__ptr64,struct aiCamera const *__ptr64)
?Copy@SceneCombiner@Assimp@@SAXPEAPEAUaiCamera@@PEBU3@@Z
; public: static void __cdecl Assimp::SceneCombiner::Copy(struct aiLight *__ptr64 *__ptr64,struct aiLight const *__ptr64)
?Copy@SceneCombiner@Assimp@@SAXPEAPEAUaiLight@@PEBU3@@Z
; public: static void __cdecl Assimp::SceneCombiner::Copy(struct aiMaterial *__ptr64 *__ptr64,struct aiMaterial const *__ptr64)
?Copy@SceneCombiner@Assimp@@SAXPEAPEAUaiMaterial@@PEBU3@@Z
; public: static void __cdecl Assimp::SceneCombiner::Copy(struct aiMesh *__ptr64 *__ptr64,struct aiMesh const *__ptr64)
?Copy@SceneCombiner@Assimp@@SAXPEAPEAUaiMesh@@PEBU3@@Z
; public: static void __cdecl Assimp::SceneCombiner::Copy(struct aiMeshMorphAnim *__ptr64 *__ptr64,struct aiMeshMorphAnim const *__ptr64)
?Copy@SceneCombiner@Assimp@@SAXPEAPEAUaiMeshMorphAnim@@PEBU3@@Z
; public: static void __cdecl Assimp::SceneCombiner::Copy(struct aiMetadata *__ptr64 *__ptr64,struct aiMetadata const *__ptr64)
?Copy@SceneCombiner@Assimp@@SAXPEAPEAUaiMetadata@@PEBU3@@Z
; public: static void __cdecl Assimp::SceneCombiner::Copy(struct aiNode *__ptr64 *__ptr64,struct aiNode const *__ptr64)
?Copy@SceneCombiner@Assimp@@SAXPEAPEAUaiNode@@PEBU3@@Z
; public: static void __cdecl Assimp::SceneCombiner::Copy(struct aiNodeAnim *__ptr64 *__ptr64,struct aiNodeAnim const *__ptr64)
?Copy@SceneCombiner@Assimp@@SAXPEAPEAUaiNodeAnim@@PEBU3@@Z
; public: static void __cdecl Assimp::SceneCombiner::Copy(struct aiString *__ptr64 *__ptr64,struct aiString const *__ptr64)
?Copy@SceneCombiner@Assimp@@SAXPEAPEAUaiString@@PEBU3@@Z
; public: static void __cdecl Assimp::SceneCombiner::Copy(struct aiTexture *__ptr64 *__ptr64,struct aiTexture const *__ptr64)
?Copy@SceneCombiner@Assimp@@SAXPEAPEAUaiTexture@@PEBU3@@Z
; public: static void __cdecl aiMaterial::CopyPropertyList(struct aiMaterial *__ptr64,struct aiMaterial const *__ptr64)
?CopyPropertyList@aiMaterial@@SAXPEAU1@PEBU1@@Z
; public: static void __cdecl Assimp::SceneCombiner::CopyScene(struct aiScene *__ptr64 *__ptr64,struct aiScene const *__ptr64,bool)
?CopyScene@SceneCombiner@Assimp@@SAXPEAPEAUaiScene@@PEBU3@_N@Z
; public: static void __cdecl Assimp::SceneCombiner::CopySceneFlat(struct aiScene *__ptr64 *__ptr64,struct aiScene const *__ptr64)
?CopySceneFlat@SceneCombiner@Assimp@@SAXPEAPEAUaiScene@@PEBU3@@Z
; private: unsigned int __cdecl Assimp::PretransformVertices::CountNodes(struct aiNode const *__ptr64)const __ptr64 
?CountNodes@PretransformVertices@Assimp@@AEBAIPEBUaiNode@@@Z
; private: void __cdecl Assimp::PretransformVertices::CountVerticesAndFaces(struct aiScene const *__ptr64,struct aiNode const *__ptr64,unsigned int,unsigned int,unsigned int *__ptr64,unsigned int *__ptr64)const __ptr64 
?CountVerticesAndFaces@PretransformVertices@Assimp@@AEBAXPEBUaiScene@@PEBUaiNode@@IIPEAI2@Z
; public: static class Assimp::Subdivider *__ptr64 __cdecl Assimp::Subdivider::Create(enum Assimp::Subdivider::Algorithm)
?Create@Subdivider@Assimp@@SAPEAV12@W4Algorithm@12@@Z
; public: virtual bool __cdecl Assimp::IOSystem::CreateDirectory(class std::<char,struct std::<char>,class std::<char>> const &__ptr64 )__ptr64 
?CreateDirectory@IOSystem@Assimp@@UEAA_NAEBV?$basic_string@DU?$char_traits@D@std@@V?$allocator@D@2@@std@@@Z
; protected: void __cdecl Assimp::SkeletonMeshBuilder::CreateGeometry(struct aiNode const *__ptr64)__ptr64 
?CreateGeometry@SkeletonMeshBuilder@Assimp@@IEAAXPEBUaiNode@@@Z
; protected: struct aiMaterial *__ptr64 __cdecl Assimp::SkeletonMeshBuilder::CreateMaterial(void)__ptr64 
?CreateMaterial@SkeletonMeshBuilder@Assimp@@IEAAPEAUaiMaterial@@XZ
; protected: struct aiMesh *__ptr64 __cdecl Assimp::SkeletonMeshBuilder::CreateMesh(void)__ptr64 
?CreateMesh@SkeletonMeshBuilder@Assimp@@IEAAPEAUaiMesh@@XZ
; protected: void __cdecl Assimp::SMDImporter::CreateOutputAnimation(int,class std::<char,struct std::<char>,class std::<char>> const &__ptr64 )__ptr64 
?CreateOutputAnimation@SMDImporter@Assimp@@IEAAXHAEBV?$basic_string@DU?$char_traits@D@std@@V?$allocator@D@2@@std@@@Z
; protected: void __cdecl Assimp::SMDImporter::CreateOutputAnimations(class std::<char,struct std::<char>,class std::<char>> const &__ptr64 ,class Assimp::IOSystem *__ptr64)__ptr64 
?CreateOutputAnimations@SMDImporter@Assimp@@IEAAXAEBV?$basic_string@DU?$char_traits@D@std@@V?$allocator@D@2@@std@@PEAVIOSystem@2@@Z
; protected: void __cdecl Assimp::SMDImporter::CreateOutputMaterials(void)__ptr64 
?CreateOutputMaterials@SMDImporter@Assimp@@IEAAXXZ
; protected: void __cdecl Assimp::SMDImporter::CreateOutputMeshes(void)__ptr64 
?CreateOutputMeshes@SMDImporter@Assimp@@IEAAXXZ
; protected: void __cdecl Assimp::SMDImporter::CreateOutputNodes(void)__ptr64 
?CreateOutputNodes@SMDImporter@Assimp@@IEAAXXZ
; public: virtual class std::<char,struct std::<char>,class std::<char>> const &__ptr64 __cdecl Assimp::IOSystem::CurrentDirectory(void)const __ptr64 
?CurrentDirectory@IOSystem@Assimp@@UEBAAEBV?$basic_string@DU?$char_traits@D@std@@V?$allocator@D@2@@std@@XZ
; private: static char const *const const Assimp::ObjFileParser::DEFAULT_MATERIAL
?DEFAULT_MATERIAL@ObjFileParser@Assimp@@0QBDB DATA
; public: virtual bool __cdecl Assimp::IOSystem::DeleteFile(class std::<char,struct std::<char>,class std::<char>> const &__ptr64 )__ptr64 
?DeleteFile@IOSystem@Assimp@@UEAA_NAEBV?$basic_string@DU?$char_traits@D@std@@V?$allocator@D@2@@std@@@Z
; private: bool __cdecl Assimp::DropFaceNormalsProcess::DropMeshFaceNormals(struct aiMesh *__ptr64)__ptr64 
?DropMeshFaceNormals@DropFaceNormalsProcess@Assimp@@AEAA_NPEAUaiMesh@@@Z
; void __cdecl Assimp::DumpSceneToAssbin(char const *__ptr64,char const *__ptr64,class Assimp::IOSystem *__ptr64,struct aiScene const *__ptr64,bool,bool)
?DumpSceneToAssbin@Assimp@@YAXPEBD0PEAVIOSystem@1@PEBUaiScene@@_N3@Z
; void __cdecl Assimp::DumpSceneToAssxml(char const *__ptr64,char const *__ptr64,class Assimp::IOSystem *__ptr64,struct aiScene const *__ptr64,bool)
?DumpSceneToAssxml@Assimp@@YAXPEBD0PEAVIOSystem@1@PEBUaiScene@@_N@Z
; public: void __cdecl Assimp::FindDegeneratesProcess::EnableAreaCheck(bool)__ptr64 
?EnableAreaCheck@FindDegeneratesProcess@Assimp@@QEAAX_N@Z
; public: void __cdecl Assimp::FindDegeneratesProcess::EnableInstantRemoval(bool)__ptr64 
?EnableInstantRemoval@FindDegeneratesProcess@Assimp@@QEAAX_N@Z
; public: virtual void __cdecl Assimp::ArmaturePopulate::Execute(struct aiScene *__ptr64)__ptr64 
?Execute@ArmaturePopulate@Assimp@@UEAAXPEAUaiScene@@@Z
; protected: virtual void __cdecl Assimp::CalcTangentsProcess::Execute(struct aiScene *__ptr64)__ptr64 
?Execute@CalcTangentsProcess@Assimp@@MEAAXPEAUaiScene@@@Z
; public: virtual void __cdecl Assimp::DropFaceNormalsProcess::Execute(struct aiScene *__ptr64)__ptr64 
?Execute@DropFaceNormalsProcess@Assimp@@UEAAXPEAUaiScene@@@Z
; public: virtual void __cdecl Assimp::EmbedTexturesProcess::Execute(struct aiScene *__ptr64)__ptr64 
?Execute@EmbedTexturesProcess@Assimp@@UEAAXPEAUaiScene@@@Z
; public: virtual void __cdecl Assimp::FindDegeneratesProcess::Execute(struct aiScene *__ptr64)__ptr64 
?Execute@FindDegeneratesProcess@Assimp@@UEAAXPEAUaiScene@@@Z
; public: virtual void __cdecl Assimp::FindInvalidDataProcess::Execute(struct aiScene *__ptr64)__ptr64 
?Execute@FindInvalidDataProcess@Assimp@@UEAAXPEAUaiScene@@@Z
; public: virtual void __cdecl Assimp::GenBoundingBoxesProcess::Execute(struct aiScene *__ptr64)__ptr64 
?Execute@GenBoundingBoxesProcess@Assimp@@UEAAXPEAUaiScene@@@Z
; public: virtual void __cdecl Assimp::GenFaceNormalsProcess::Execute(struct aiScene *__ptr64)__ptr64 
?Execute@GenFaceNormalsProcess@Assimp@@UEAAXPEAUaiScene@@@Z
; public: virtual void __cdecl Assimp::GenVertexNormalsProcess::Execute(struct aiScene *__ptr64)__ptr64 
?Execute@GenVertexNormalsProcess@Assimp@@UEAAXPEAUaiScene@@@Z
; public: virtual void __cdecl Assimp::JoinVerticesProcess::Execute(struct aiScene *__ptr64)__ptr64 
?Execute@JoinVerticesProcess@Assimp@@UEAAXPEAUaiScene@@@Z
; public: virtual void __cdecl Assimp::LimitBoneWeightsProcess::Execute(struct aiScene *__ptr64)__ptr64 
?Execute@LimitBoneWeightsProcess@Assimp@@UEAAXPEAUaiScene@@@Z
; public: virtual void __cdecl Assimp::MakeVerboseFormatProcess::Execute(struct aiScene *__ptr64)__ptr64 
?Execute@MakeVerboseFormatProcess@Assimp@@UEAAXPEAUaiScene@@@Z
; public: virtual void __cdecl Assimp::PretransformVertices::Execute(struct aiScene *__ptr64)__ptr64 
?Execute@PretransformVertices@Assimp@@UEAAXPEAUaiScene@@@Z
; public: virtual void __cdecl Assimp::RemoveRedundantMatsProcess::Execute(struct aiScene *__ptr64)__ptr64 
?Execute@RemoveRedundantMatsProcess@Assimp@@UEAAXPEAUaiScene@@@Z
; public: virtual void __cdecl Assimp::RemoveVCProcess::Execute(struct aiScene *__ptr64)__ptr64 
?Execute@RemoveVCProcess@Assimp@@UEAAXPEAUaiScene@@@Z
; public: virtual void __cdecl Assimp::ScaleProcess::Execute(struct aiScene *__ptr64)__ptr64 
?Execute@ScaleProcess@Assimp@@UEAAXPEAUaiScene@@@Z
; public: virtual void __cdecl Assimp::SortByPTypeProcess::Execute(struct aiScene *__ptr64)__ptr64 
?Execute@SortByPTypeProcess@Assimp@@UEAAXPEAUaiScene@@@Z
; public: virtual void __cdecl Assimp::SplitLargeMeshesProcess_Triangle::Execute(struct aiScene *__ptr64)__ptr64 
?Execute@SplitLargeMeshesProcess_Triangle@Assimp@@UEAAXPEAUaiScene@@@Z
; public: virtual void __cdecl Assimp::SplitLargeMeshesProcess_Vertex::Execute(struct aiScene *__ptr64)__ptr64 
?Execute@SplitLargeMeshesProcess_Vertex@Assimp@@UEAAXPEAUaiScene@@@Z
; public: virtual void __cdecl Assimp::TriangulateProcess::Execute(struct aiScene *__ptr64)__ptr64 
?Execute@TriangulateProcess@Assimp@@UEAAXPEAUaiScene@@@Z
; public: bool __cdecl Assimp::FindDegeneratesProcess::ExecuteOnMesh(struct aiMesh *__ptr64)__ptr64 
?ExecuteOnMesh@FindDegeneratesProcess@Assimp@@QEAA_NPEAUaiMesh@@@Z
; public: void __cdecl Assimp::BaseProcess::ExecuteOnScene(class Assimp::Importer *__ptr64)__ptr64 
?ExecuteOnScene@BaseProcess@Assimp@@QEAAXPEAVImporter@2@@Z
; public: virtual bool __cdecl Assimp::DefaultIOSystem::Exists(char const *__ptr64)const __ptr64 
?Exists@DefaultIOSystem@Assimp@@UEBA_NPEBD@Z
; public: bool __cdecl Assimp::IOSystem::Exists(class std::<char,struct std::<char>,class std::<char>> const &__ptr64 )const __ptr64 
?Exists@IOSystem@Assimp@@QEBA_NAEBV?$basic_string@DU?$char_traits@D@std@@V?$allocator@D@2@@std@@@Z
; public: enum aiReturn __cdecl Assimp::Exporter::Export(struct aiScene const *__ptr64,class std::<char,struct std::<char>,class std::<char>> const &__ptr64 ,class std::<char,struct std::<char>,class std::<char>> const &__ptr64 ,unsigned int,class Assimp::ExportProperties const *__ptr64)__ptr64 
?Export@Exporter@Assimp@@QEAA?AW4aiReturn@@PEBUaiScene@@AEBV?$basic_string@DU?$char_traits@D@std@@V?$allocator@D@2@@std@@1IPEBVExportProperties@2@@Z
; public: enum aiReturn __cdecl Assimp::Exporter::Export(struct aiScene const *__ptr64,char const *__ptr64,char const *__ptr64,unsigned int,class Assimp::ExportProperties const *__ptr64)__ptr64 
?Export@Exporter@Assimp@@QEAA?AW4aiReturn@@PEBUaiScene@@PEBD1IPEBVExportProperties@2@@Z
; public: struct aiExportDataBlob const *__ptr64 __cdecl Assimp::Exporter::ExportToBlob(struct aiScene const *__ptr64,class std::<char,struct std::<char>,class std::<char>> const &__ptr64 ,unsigned int,class Assimp::ExportProperties const *__ptr64)__ptr64 
?ExportToBlob@Exporter@Assimp@@QEAAPEBUaiExportDataBlob@@PEBUaiScene@@AEBV?$basic_string@DU?$char_traits@D@std@@V?$allocator@D@2@@std@@IPEBVExportProperties@2@@Z
; public: struct aiExportDataBlob const *__ptr64 __cdecl Assimp::Exporter::ExportToBlob(struct aiScene const *__ptr64,char const *__ptr64,unsigned int,class Assimp::ExportProperties const *__ptr64)__ptr64 
?ExportToBlob@Exporter@Assimp@@QEAAPEBUaiExportDataBlob@@PEBUaiScene@@PEBDIPEBVExportProperties@2@@Z
; public: virtual unsigned __int64 __cdecl Assimp::DefaultIOStream::FileSize(void)const __ptr64 
?FileSize@DefaultIOStream@Assimp@@UEBA_KXZ
; public: void __cdecl Assimp::SpatialSort::Fill(class <float> const *__ptr64,unsigned int,unsigned int,bool)__ptr64 
?Fill@SpatialSort@Assimp@@QEAAXPEBV?$aiVector3t@M@@II_N@Z
; public: void __cdecl Assimp::SpatialSort::Finalize(void)__ptr64 
?Finalize@SpatialSort@Assimp@@QEAAXXZ
; public: void __cdecl Assimp::SpatialSort::FindIdenticalPositions(class <float> const &__ptr64 ,class std::<unsigned int,class std::<unsigned int>> &__ptr64 )const __ptr64 
?FindIdenticalPositions@SpatialSort@Assimp@@QEBAXAEBV?$aiVector3t@M@@AEAV?$vector@IV?$allocator@I@std@@@std@@@Z
; private: static bool __cdecl Assimp::SceneCombiner::FindNameMatch(struct aiString const &__ptr64 ,class std::<struct Assimp::SceneHelper,class std::<struct Assimp::SceneHelper>> &__ptr64 ,unsigned int)
?FindNameMatch@SceneCombiner@Assimp@@CA_NAEBUaiString@@AEAV?$vector@USceneHelper@Assimp@@V?$allocator@USceneHelper@Assimp@@@std@@@std@@I@Z
; public: struct aiNode *__ptr64 __cdecl aiNode::FindNode(struct aiString const &__ptr64 )__ptr64 
?FindNode@aiNode@@QEAAPEAU1@AEBUaiString@@@Z
; public: struct aiNode *__ptr64 __cdecl aiNode::FindNode(char const *__ptr64)__ptr64 
?FindNode@aiNode@@QEAAPEAU1@PEBD@Z
; public: struct aiNode const *__ptr64 __cdecl aiNode::FindNode(struct aiString const &__ptr64 )const __ptr64 
?FindNode@aiNode@@QEBAPEBU1@AEBUaiString@@@Z
; public: struct aiNode const *__ptr64 __cdecl aiNode::FindNode(char const *__ptr64)const __ptr64 
?FindNode@aiNode@@QEBAPEBU1@PEBD@Z
; public: void __cdecl Assimp::SGSpatialSort::FindPositions(class <float> const &__ptr64 ,unsigned int,float,class std::<unsigned int,class std::<unsigned int>> &__ptr64 ,bool)const __ptr64 
?FindPositions@SGSpatialSort@Assimp@@QEBAXAEBV?$aiVector3t@M@@IMAEAV?$vector@IV?$allocator@I@std@@@std@@_N@Z
; public: void __cdecl Assimp::SpatialSort::FindPositions(class <float> const &__ptr64 ,float,class std::<unsigned int,class std::<unsigned int>> &__ptr64 )const __ptr64 
?FindPositions@SpatialSort@Assimp@@QEBAXAEBV?$aiVector3t@M@@MAEAV?$vector@IV?$allocator@I@std@@@std@@@Z
; protected: void __cdecl Assimp::SMDImporter::FixTimeValues(void)__ptr64 
?FixTimeValues@SMDImporter@Assimp@@IEAAXXZ
; public: virtual void __cdecl Assimp::DefaultIOStream::Flush(void)__ptr64 
?Flush@DefaultIOStream@Assimp@@UEAAXXZ
; public: void __cdecl Assimp::Exporter::FreeBlob(void)__ptr64 
?FreeBlob@Exporter@Assimp@@QEAAXXZ
; public: void __cdecl Assimp::Importer::FreeScene(void)__ptr64 
?FreeScene@Importer@Assimp@@QEAAXXZ
; private: bool __cdecl Assimp::GenFaceNormalsProcess::GenMeshFaceNormals(struct aiMesh *__ptr64)__ptr64 
?GenMeshFaceNormals@GenFaceNormalsProcess@Assimp@@AEAA_NPEAUaiMesh@@@Z
; public: bool __cdecl Assimp::GenVertexNormalsProcess::GenMeshVertexNormals(struct aiMesh *__ptr64,unsigned int)__ptr64 
?GenMeshVertexNormals@GenVertexNormalsProcess@Assimp@@QEAA_NPEAUaiMesh@@I@Z
; public: unsigned int __cdecl Assimp::SpatialSort::GenerateMappingTable(class std::<unsigned int,class std::<unsigned int>> &__ptr64 ,float)const __ptr64 
?GenerateMappingTable@SpatialSort@Assimp@@QEBAIAEAV?$vector@IV?$allocator@I@std@@@std@@M@Z
; public: enum aiReturn __cdecl aiMaterial::Get(char const *__ptr64,unsigned int,unsigned int,int &__ptr64 )const __ptr64 
?Get@aiMaterial@@QEBA?AW4aiReturn@@PEBDIIAEAH@Z
; public: enum aiReturn __cdecl aiMaterial::Get(char const *__ptr64,unsigned int,unsigned int,float &__ptr64 )const __ptr64 
?Get@aiMaterial@@QEBA?AW4aiReturn@@PEBDIIAEAM@Z
; public: enum aiReturn __cdecl aiMaterial::Get(char const *__ptr64,unsigned int,unsigned int,struct aiColor3D &__ptr64 )const __ptr64 
?Get@aiMaterial@@QEBA?AW4aiReturn@@PEBDIIAEAUaiColor3D@@@Z
; public: enum aiReturn __cdecl aiMaterial::Get(char const *__ptr64,unsigned int,unsigned int,struct aiString &__ptr64 )const __ptr64 
?Get@aiMaterial@@QEBA?AW4aiReturn@@PEBDIIAEAUaiString@@@Z
; public: enum aiReturn __cdecl aiMaterial::Get(char const *__ptr64,unsigned int,unsigned int,struct aiUVTransform &__ptr64 )const __ptr64 
?Get@aiMaterial@@QEBA?AW4aiReturn@@PEBDIIAEAUaiUVTransform@@@Z
; public: enum aiReturn __cdecl aiMaterial::Get(char const *__ptr64,unsigned int,unsigned int,class <float> &__ptr64 )const __ptr64 
?Get@aiMaterial@@QEBA?AW4aiReturn@@PEBDIIAEAV?$aiColor4t@M@@@Z
; public: enum aiReturn __cdecl aiMaterial::Get(char const *__ptr64,unsigned int,unsigned int,int *__ptr64,unsigned int *__ptr64)const __ptr64 
?Get@aiMaterial@@QEBA?AW4aiReturn@@PEBDIIPEAHPEAI@Z
; public: enum aiReturn __cdecl aiMaterial::Get(char const *__ptr64,unsigned int,unsigned int,float *__ptr64,unsigned int *__ptr64)const __ptr64 
?Get@aiMaterial@@QEBA?AW4aiReturn@@PEBDIIPEAMPEAI@Z
; public: unsigned int *__ptr64 __cdecl Assimp::VertexTriangleAdjacency::GetAdjacentTriangles(unsigned int)const __ptr64 
?GetAdjacentTriangles@VertexTriangleAdjacency@Assimp@@QEBAPEAII@Z
; protected: void __cdecl Assimp::SMDImporter::GetAnimationFileList(class std::<char,struct std::<char>,class std::<char>> const &__ptr64 ,class Assimp::IOSystem *__ptr64,class std::<class std::<class std::<char,struct std::<char>,class std::<char>>,class std::<char,struct std::<char>,class std::<char>>>,class std::<class std::<class std::<char,struct std::<char>,class std::<char>>,class std::<char,struct std::<char>,class std::<char>>>>> &__ptr64 )__ptr64 
?GetAnimationFileList@SMDImporter@Assimp@@IEAAXAEBV?$basic_string@DU?$char_traits@D@std@@V?$allocator@D@2@@std@@PEAVIOSystem@2@AEAV?$vector@V?$tuple@V?$basic_string@DU?$char_traits@D@std@@V?$allocator@D@2@@std@@V12@@std@@V?$allocator@V?$tuple@V?$basic_string@DU?$char_traits@D@std@@V?$allocator@D@2@@std@@V12@@std@@@2@@4@@Z
; public: static struct aiNode *__ptr64 __cdecl Assimp::ArmaturePopulate::GetArmatureRoot(struct aiNode *__ptr64,class std::<struct aiBone *__ptr64,class std::<struct aiBone *__ptr64>> &__ptr64 )
?GetArmatureRoot@ArmaturePopulate@Assimp@@SAPEAUaiNode@@PEAU3@AEAV?$vector@PEAUaiBone@@V?$allocator@PEAUaiBone@@@std@@@std@@@Z
; public: struct aiExportDataBlob const *__ptr64 __cdecl Assimp::Exporter::GetBlob(void)const __ptr64 
?GetBlob@Exporter@Assimp@@QEBAPEBUaiExportDataBlob@@XZ
; public: unsigned int __cdecl Assimp::RemoveVCProcess::GetDeleteFlags(void)const __ptr64 
?GetDeleteFlags@RemoveVCProcess@Assimp@@QEBAIXZ
; public: char const *__ptr64 __cdecl Assimp::Exporter::GetErrorString(void)const __ptr64 
?GetErrorString@Exporter@Assimp@@QEBAPEBDXZ
; public: char const *__ptr64 __cdecl Assimp::Importer::GetErrorString(void)const __ptr64 
?GetErrorString@Importer@Assimp@@QEBAPEBDXZ
; public: class std::<char,struct std::<char>,class std::<char>> const &__ptr64 __cdecl Assimp::BaseImporter::GetErrorText(void)const __ptr64 
?GetErrorText@BaseImporter@Assimp@@QEBAAEBV?$basic_string@DU?$char_traits@D@std@@V?$allocator@D@2@@std@@XZ
; public: class std::exception_ptr const &__ptr64 __cdecl Assimp::BaseImporter::GetException(void)const __ptr64 
?GetException@BaseImporter@Assimp@@QEBAAEBVexception_ptr@std@@XZ
; public: class std::exception_ptr const &__ptr64 __cdecl Assimp::Importer::GetException(void)const __ptr64 
?GetException@Importer@Assimp@@QEBAAEBVexception_ptr@std@@XZ
; public: unsigned __int64 __cdecl Assimp::Exporter::GetExportFormatCount(void)const __ptr64 
?GetExportFormatCount@Exporter@Assimp@@QEBA_KXZ
; public: struct aiExportFormatDesc const *__ptr64 __cdecl Assimp::Exporter::GetExportFormatDescription(unsigned __int64)const __ptr64 
?GetExportFormatDescription@Exporter@Assimp@@QEBAPEBUaiExportFormatDesc@@_K@Z
; public: static class std::<char,struct std::<char>,class std::<char>> __cdecl Assimp::BaseImporter::GetExtension(class std::<char,struct std::<char>,class std::<char>> const &__ptr64 )
?GetExtension@BaseImporter@Assimp@@SA?AV?$basic_string@DU?$char_traits@D@std@@V?$allocator@D@2@@std@@AEBV34@@Z
; public: void __cdecl Assimp::BaseImporter::GetExtensionList(class std::<class std::<char,struct std::<char>,class std::<char>>,struct std::<class std::<char,struct std::<char>,class std::<char>>>,class std::<class std::<char,struct std::<char>,class std::<char>>>> &__ptr64 )__ptr64 
?GetExtensionList@BaseImporter@Assimp@@QEAAXAEAV?$set@V?$basic_string@DU?$char_traits@D@std@@V?$allocator@D@2@@std@@U?$less@V?$basic_string@DU?$char_traits@D@std@@V?$allocator@D@2@@std@@@2@V?$allocator@V?$basic_string@DU?$char_traits@D@std@@V?$allocator@D@2@@std@@@2@@std@@@Z
; public: void __cdecl Assimp::Importer::GetExtensionList(struct aiString &__ptr64 )const __ptr64 
?GetExtensionList@Importer@Assimp@@QEBAXAEAUaiString@@@Z
; public: void __cdecl Assimp::Importer::GetExtensionList(class std::<char,struct std::<char>,class std::<char>> &__ptr64 )const __ptr64 
?GetExtensionList@Importer@Assimp@@QEBAXAEAV?$basic_string@DU?$char_traits@D@std@@V?$allocator@D@2@@std@@@Z
; public: class std::<char,struct std::<char>,class std::<char>> const &__ptr64 __cdecl Assimp::RemoveRedundantMatsProcess::GetFixedMaterialsString(void)const __ptr64 
?GetFixedMaterialsString@RemoveRedundantMatsProcess@Assimp@@QEBAAEBV?$basic_string@DU?$char_traits@D@std@@V?$allocator@D@2@@std@@XZ
; public: class Assimp::IOSystem *__ptr64 __cdecl Assimp::Exporter::GetIOHandler(void)const __ptr64 
?GetIOHandler@Exporter@Assimp@@QEBAPEAVIOSystem@2@XZ
; public: class Assimp::IOSystem *__ptr64 __cdecl Assimp::Importer::GetIOHandler(void)const __ptr64 
?GetIOHandler@Importer@Assimp@@QEBAPEAVIOSystem@2@XZ
; public: struct aiScene *__ptr64 __cdecl Assimp::BatchLoader::GetImport(unsigned int)__ptr64 
?GetImport@BatchLoader@Assimp@@QEAAPEAUaiScene@@I@Z
; public: class Assimp::BaseImporter *__ptr64 __cdecl Assimp::Importer::GetImporter(char const *__ptr64)const __ptr64 
?GetImporter@Importer@Assimp@@QEBAPEAVBaseImporter@2@PEBD@Z
; public: class Assimp::BaseImporter *__ptr64 __cdecl Assimp::Importer::GetImporter(unsigned __int64)const __ptr64 
?GetImporter@Importer@Assimp@@QEBAPEAVBaseImporter@2@_K@Z
; public: unsigned __int64 __cdecl Assimp::Importer::GetImporterCount(void)const __ptr64 
?GetImporterCount@Importer@Assimp@@QEBA_KXZ
; public: unsigned __int64 __cdecl Assimp::Importer::GetImporterIndex(char const *__ptr64)const __ptr64 
?GetImporterIndex@Importer@Assimp@@QEBA_KPEBD@Z
; public: struct aiImporterDesc const *__ptr64 __cdecl Assimp::Importer::GetImporterInfo(unsigned __int64)const __ptr64 
?GetImporterInfo@Importer@Assimp@@QEBAPEBUaiImporterDesc@@_K@Z
; protected: virtual struct aiImporterDesc const *__ptr64 __cdecl Assimp::SIBImporter::GetInfo(void)const __ptr64 
?GetInfo@SIBImporter@Assimp@@MEBAPEBUaiImporterDesc@@XZ
; protected: virtual struct aiImporterDesc const *__ptr64 __cdecl Assimp::SMDImporter::GetInfo(void)const __ptr64 
?GetInfo@SMDImporter@Assimp@@MEBAPEBUaiImporterDesc@@XZ
; public: unsigned int __cdecl Assimp::SplitLargeMeshesProcess_Triangle::GetLimit(void)const __ptr64 
?GetLimit@SplitLargeMeshesProcess_Triangle@Assimp@@QEBAIXZ
; public: unsigned int __cdecl Assimp::SplitLargeMeshesProcess_Vertex::GetLimit(void)const __ptr64 
?GetLimit@SplitLargeMeshesProcess_Vertex@Assimp@@QEBAIXZ
; public: void __cdecl Assimp::Importer::GetMemoryRequirements(struct aiMemoryInfo &__ptr64 )const __ptr64 
?GetMemoryRequirements@Importer@Assimp@@QEBAXAEAUaiMemoryInfo@@@Z
; private: unsigned int __cdecl Assimp::PretransformVertices::GetMeshVFormat(struct aiMesh *__ptr64)const __ptr64 
?GetMeshVFormat@PretransformVertices@Assimp@@AEBAIPEAUaiMesh@@@Z
; public: struct Assimp::ObjFile::Model *__ptr64 __cdecl Assimp::ObjFileParser::GetModel(void)const __ptr64 
?GetModel@ObjFileParser@Assimp@@QEBAPEAUModel@ObjFile@2@XZ
; public: struct aiString __cdecl aiMaterial::GetName(void)const __ptr64 
?GetName@aiMaterial@@QEBA?AUaiString@@XZ
; public: static struct aiNode *__ptr64 __cdecl Assimp::ArmaturePopulate::GetNodeFromStack(struct aiString const &__ptr64 ,class std::<struct aiNode *__ptr64,class std::<struct aiNode *__ptr64>> &__ptr64 )
?GetNodeFromStack@ArmaturePopulate@Assimp@@SAPEAUaiNode@@AEBUaiString@@AEAV?$vector@PEAUaiNode@@V?$allocator@PEAUaiNode@@@std@@@std@@@Z
; public: unsigned int &__ptr64 __cdecl Assimp::VertexTriangleAdjacency::GetNumTrianglesPtr(unsigned int)__ptr64 
?GetNumTrianglesPtr@VertexTriangleAdjacency@Assimp@@QEAAAEAII@Z
; public: struct aiExportDataBlob const *__ptr64 __cdecl Assimp::Exporter::GetOrphanedBlob(void)const __ptr64 
?GetOrphanedBlob@Exporter@Assimp@@QEBAPEBUaiExportDataBlob@@XZ
; public: struct aiScene *__ptr64 __cdecl Assimp::Importer::GetOrphanedScene(void)__ptr64 
?GetOrphanedScene@Importer@Assimp@@QEAAPEAUaiScene@@XZ
; public: class Assimp::ProgressHandler *__ptr64 __cdecl Assimp::Importer::GetProgressHandler(void)const __ptr64 
?GetProgressHandler@Importer@Assimp@@QEBAPEAVProgressHandler@2@XZ
; public: bool __cdecl Assimp::ExportProperties::GetPropertyBool(char const *__ptr64,bool)const __ptr64 
?GetPropertyBool@ExportProperties@Assimp@@QEBA_NPEBD_N@Z
; public: bool __cdecl Assimp::Importer::GetPropertyBool(char const *__ptr64,bool)const __ptr64 
?GetPropertyBool@Importer@Assimp@@QEBA_NPEBD_N@Z
; public: class std::<void *__ptr64 __cdecl(void *__ptr64)> __cdecl Assimp::ExportProperties::GetPropertyCallback(char const *__ptr64)const __ptr64 
?GetPropertyCallback@ExportProperties@Assimp@@QEBA?AV?$function@$$A6APEAXPEAX@Z@std@@PEBD@Z
; public: float __cdecl Assimp::ExportProperties::GetPropertyFloat(char const *__ptr64,float)const __ptr64 
?GetPropertyFloat@ExportProperties@Assimp@@QEBAMPEBDM@Z
; public: float __cdecl Assimp::Importer::GetPropertyFloat(char const *__ptr64,float)const __ptr64 
?GetPropertyFloat@Importer@Assimp@@QEBAMPEBDM@Z
; public: int __cdecl Assimp::ExportProperties::GetPropertyInteger(char const *__ptr64,int)const __ptr64 
?GetPropertyInteger@ExportProperties@Assimp@@QEBAHPEBDH@Z
; public: int __cdecl Assimp::Importer::GetPropertyInteger(char const *__ptr64,int)const __ptr64 
?GetPropertyInteger@Importer@Assimp@@QEBAHPEBDH@Z
; public: class <float> const __cdecl Assimp::ExportProperties::GetPropertyMatrix(char const *__ptr64,class <float> const &__ptr64 )const __ptr64 
?GetPropertyMatrix@ExportProperties@Assimp@@QEBA?BV?$aiMatrix4x4t@M@@PEBDAEBV3@@Z
; public: class <float> __cdecl Assimp::Importer::GetPropertyMatrix(char const *__ptr64,class <float> const &__ptr64 )const __ptr64 
?GetPropertyMatrix@Importer@Assimp@@QEBA?AV?$aiMatrix4x4t@M@@PEBDAEBV3@@Z
; public: void *__ptr64 __cdecl Assimp::Importer::GetPropertyPointer(char const *__ptr64,void *__ptr64)const __ptr64 
?GetPropertyPointer@Importer@Assimp@@QEBAPEAXPEBDPEAX@Z
; public: class std::<char,struct std::<char>,class std::<char>> const __cdecl Assimp::ExportProperties::GetPropertyString(char const *__ptr64,class std::<char,struct std::<char>,class std::<char>> const &__ptr64 )const __ptr64 
?GetPropertyString@ExportProperties@Assimp@@QEBA?BV?$basic_string@DU?$char_traits@D@std@@V?$allocator@D@2@@std@@PEBDAEBV34@@Z
; public: class std::<char,struct std::<char>,class std::<char>> __cdecl Assimp::Importer::GetPropertyString(char const *__ptr64,class std::<char,struct std::<char>,class std::<char>> const &__ptr64 )const __ptr64 
?GetPropertyString@Importer@Assimp@@QEBA?AV?$basic_string@DU?$char_traits@D@std@@V?$allocator@D@2@@std@@PEBDAEBV34@@Z
; public: struct aiScene const *__ptr64 __cdecl Assimp::Importer::GetScene(void)const __ptr64 
?GetScene@Importer@Assimp@@QEBAPEBUaiScene@@XZ
; public: class Assimp::SharedPostProcessInfo *__ptr64 __cdecl Assimp::BaseProcess::GetSharedData(void)__ptr64 
?GetSharedData@BaseProcess@Assimp@@QEAAPEAVSharedPostProcessInfo@2@XZ
; public: enum aiReturn __cdecl aiMaterial::GetTexture(enum aiTextureType,unsigned int,struct aiString *__ptr64,enum aiTextureMapping *__ptr64,unsigned int *__ptr64,float *__ptr64,enum aiTextureOp *__ptr64,enum aiTextureMapMode *__ptr64)const __ptr64 
?GetTexture@aiMaterial@@QEBA?AW4aiReturn@@W4aiTextureType@@IPEAUaiString@@PEAW4aiTextureMapping@@PEAIPEAMPEAW4aiTextureOp@@PEAW4aiTextureMapMode@@@Z
; public: unsigned int __cdecl aiMaterial::GetTextureCount(enum aiTextureType)const __ptr64 
?GetTextureCount@aiMaterial@@QEBAIW4aiTextureType@@@Z
; protected: unsigned int __cdecl Assimp::SMDImporter::GetTextureIndex(class std::<char,struct std::<char>,class std::<char>> const &__ptr64 )__ptr64 
?GetTextureIndex@SMDImporter@Assimp@@IEAAIAEBV?$basic_string@DU?$char_traits@D@std@@V?$allocator@D@2@@std@@@Z
; private: unsigned int __cdecl Assimp::DefaultLogger::GetThreadID(void)__ptr64 
?GetThreadID@DefaultLogger@Assimp@@AEAAIXZ
; private: void __cdecl Assimp::PretransformVertices::GetVFormatList(struct aiScene const *__ptr64,unsigned int,class std::<unsigned int,class std::<unsigned int>> &__ptr64 )const __ptr64 
?GetVFormatList@PretransformVertices@Assimp@@AEBAXPEBUaiScene@@IAEAV?$list@IV?$allocator@I@std@@@std@@@Z
; public: bool __cdecl Assimp::ExportProperties::HasPropertyBool(char const *__ptr64)const __ptr64 
?HasPropertyBool@ExportProperties@Assimp@@QEBA_NPEBD@Z
; public: bool __cdecl Assimp::ExportProperties::HasPropertyCallback(char const *__ptr64)const __ptr64 
?HasPropertyCallback@ExportProperties@Assimp@@QEBA_NPEBD@Z
; public: bool __cdecl Assimp::ExportProperties::HasPropertyFloat(char const *__ptr64)const __ptr64 
?HasPropertyFloat@ExportProperties@Assimp@@QEBA_NPEBD@Z
; public: bool __cdecl Assimp::ExportProperties::HasPropertyInteger(char const *__ptr64)const __ptr64 
?HasPropertyInteger@ExportProperties@Assimp@@QEBA_NPEBD@Z
; public: bool __cdecl Assimp::ExportProperties::HasPropertyMatrix(char const *__ptr64)const __ptr64 
?HasPropertyMatrix@ExportProperties@Assimp@@QEBA_NPEBD@Z
; public: bool __cdecl Assimp::ExportProperties::HasPropertyString(char const *__ptr64)const __ptr64 
?HasPropertyString@ExportProperties@Assimp@@QEBA_NPEBD@Z
; protected: virtual void __cdecl Assimp::SIBImporter::InternReadFile(class std::<char,struct std::<char>,class std::<char>> const &__ptr64 ,struct aiScene *__ptr64,class Assimp::IOSystem *__ptr64)__ptr64 
?InternReadFile@SIBImporter@Assimp@@MEAAXAEBV?$basic_string@DU?$char_traits@D@std@@V?$allocator@D@2@@std@@PEAUaiScene@@PEAVIOSystem@2@@Z
; protected: virtual void __cdecl Assimp::SMDImporter::InternReadFile(class std::<char,struct std::<char>,class std::<char>> const &__ptr64 ,struct aiScene *__ptr64,class Assimp::IOSystem *__ptr64)__ptr64 
?InternReadFile@SMDImporter@Assimp@@MEAAXAEBV?$basic_string@DU?$char_traits@D@std@@V?$allocator@D@2@@std@@PEAUaiScene@@PEAVIOSystem@2@@Z
; public: virtual bool __cdecl Assimp::ArmaturePopulate::IsActive(unsigned int)const __ptr64 
?IsActive@ArmaturePopulate@Assimp@@UEBA_NI@Z
; public: virtual bool __cdecl Assimp::CalcTangentsProcess::IsActive(unsigned int)const __ptr64 
?IsActive@CalcTangentsProcess@Assimp@@UEBA_NI@Z
; public: virtual bool __cdecl Assimp::DropFaceNormalsProcess::IsActive(unsigned int)const __ptr64 
?IsActive@DropFaceNormalsProcess@Assimp@@UEBA_NI@Z
; public: virtual bool __cdecl Assimp::EmbedTexturesProcess::IsActive(unsigned int)const __ptr64 
?IsActive@EmbedTexturesProcess@Assimp@@UEBA_NI@Z
; public: virtual bool __cdecl Assimp::FindDegeneratesProcess::IsActive(unsigned int)const __ptr64 
?IsActive@FindDegeneratesProcess@Assimp@@UEBA_NI@Z
; public: virtual bool __cdecl Assimp::FindInvalidDataProcess::IsActive(unsigned int)const __ptr64 
?IsActive@FindInvalidDataProcess@Assimp@@UEBA_NI@Z
; public: virtual bool __cdecl Assimp::GenBoundingBoxesProcess::IsActive(unsigned int)const __ptr64 
?IsActive@GenBoundingBoxesProcess@Assimp@@UEBA_NI@Z
; public: virtual bool __cdecl Assimp::GenFaceNormalsProcess::IsActive(unsigned int)const __ptr64 
?IsActive@GenFaceNormalsProcess@Assimp@@UEBA_NI@Z
; public: virtual bool __cdecl Assimp::GenVertexNormalsProcess::IsActive(unsigned int)const __ptr64 
?IsActive@GenVertexNormalsProcess@Assimp@@UEBA_NI@Z
; public: virtual bool __cdecl Assimp::JoinVerticesProcess::IsActive(unsigned int)const __ptr64 
?IsActive@JoinVerticesProcess@Assimp@@UEBA_NI@Z
; public: virtual bool __cdecl Assimp::LimitBoneWeightsProcess::IsActive(unsigned int)const __ptr64 
?IsActive@LimitBoneWeightsProcess@Assimp@@UEBA_NI@Z
; public: virtual bool __cdecl Assimp::MakeVerboseFormatProcess::IsActive(unsigned int)const __ptr64 
?IsActive@MakeVerboseFormatProcess@Assimp@@UEBA_NI@Z
; public: virtual bool __cdecl Assimp::PretransformVertices::IsActive(unsigned int)const __ptr64 
?IsActive@PretransformVertices@Assimp@@UEBA_NI@Z
; public: virtual bool __cdecl Assimp::RemoveRedundantMatsProcess::IsActive(unsigned int)const __ptr64 
?IsActive@RemoveRedundantMatsProcess@Assimp@@UEBA_NI@Z
; public: virtual bool __cdecl Assimp::RemoveVCProcess::IsActive(unsigned int)const __ptr64 
?IsActive@RemoveVCProcess@Assimp@@UEBA_NI@Z
; public: virtual bool __cdecl Assimp::ScaleProcess::IsActive(unsigned int)const __ptr64 
?IsActive@ScaleProcess@Assimp@@UEBA_NI@Z
; public: virtual bool __cdecl Assimp::SortByPTypeProcess::IsActive(unsigned int)const __ptr64 
?IsActive@SortByPTypeProcess@Assimp@@UEBA_NI@Z
; public: virtual bool __cdecl Assimp::SplitLargeMeshesProcess_Triangle::IsActive(unsigned int)const __ptr64 
?IsActive@SplitLargeMeshesProcess_Triangle@Assimp@@UEBA_NI@Z
; public: virtual bool __cdecl Assimp::SplitLargeMeshesProcess_Vertex::IsActive(unsigned int)const __ptr64 
?IsActive@SplitLargeMeshesProcess_Vertex@Assimp@@UEBA_NI@Z
; public: virtual bool __cdecl Assimp::TriangulateProcess::IsActive(unsigned int)const __ptr64 
?IsActive@TriangulateProcess@Assimp@@UEBA_NI@Z
; public: static bool __cdecl Assimp::ArmaturePopulate::IsBoneNode(struct aiString const &__ptr64 ,class std::<struct aiBone *__ptr64,class std::<struct aiBone *__ptr64>> &__ptr64 )
?IsBoneNode@ArmaturePopulate@Assimp@@SA_NAEBUaiString@@AEAV?$vector@PEAUaiBone@@V?$allocator@PEAUaiBone@@@std@@@std@@@Z
; public: bool __cdecl Assimp::Exporter::IsDefaultIOHandler(void)const __ptr64 
?IsDefaultIOHandler@Exporter@Assimp@@QEBA_NXZ
; public: bool __cdecl Assimp::Importer::IsDefaultIOHandler(void)const __ptr64 
?IsDefaultIOHandler@Importer@Assimp@@QEBA_NXZ
; public: bool __cdecl Assimp::Importer::IsDefaultProgressHandler(void)const __ptr64 
?IsDefaultProgressHandler@Importer@Assimp@@QEBA_NXZ
; public: bool __cdecl Assimp::Importer::IsExtensionSupported(class std::<char,struct std::<char>,class std::<char>> const &__ptr64 )const __ptr64 
?IsExtensionSupported@Importer@Assimp@@QEBA_NAEBV?$basic_string@DU?$char_traits@D@std@@V?$allocator@D@2@@std@@@Z
; public: bool __cdecl Assimp::Importer::IsExtensionSupported(char const *__ptr64)const __ptr64 
?IsExtensionSupported@Importer@Assimp@@QEBA_NPEBD@Z
; public: bool __cdecl Assimp::PretransformVertices::IsHierarchyKept(void)const __ptr64 
?IsHierarchyKept@PretransformVertices@Assimp@@QEBA_NXZ
; public: bool __cdecl Assimp::FindDegeneratesProcess::IsInstantRemoval(void)const __ptr64 
?IsInstantRemoval@FindDegeneratesProcess@Assimp@@QEBA_NXZ
; public: static bool __cdecl Assimp::MakeVerboseFormatProcess::IsVerboseFormat(struct aiScene const *__ptr64)
?IsVerboseFormat@MakeVerboseFormatProcess@Assimp@@SA_NPEBUaiScene@@@Z
; public: void __cdecl Assimp::PretransformVertices::KeepHierarchy(bool)__ptr64 
?KeepHierarchy@PretransformVertices@Assimp@@QEAAX_N@Z
; public: void __cdecl Assimp::BatchLoader::LoadAll(void)__ptr64 
?LoadAll@BatchLoader@Assimp@@QEAAXXZ
; protected: void __cdecl Assimp::SMDImporter::LogErrorNoThrow(char const *__ptr64)__ptr64 
?LogErrorNoThrow@SMDImporter@Assimp@@IEAAXPEBD@Z
; protected: void __cdecl Assimp::SMDImporter::LogWarning(char const *__ptr64)__ptr64 
?LogWarning@SMDImporter@Assimp@@IEAAXPEBD@Z
; public: static void __cdecl Assimp::StandardShapes::MakeCircle(float,unsigned int,class std::<class <float>,class std::<class <float>>> &__ptr64 )
?MakeCircle@StandardShapes@Assimp@@SAXMIAEAV?$vector@V?$aiVector3t@M@@V?$allocator@V?$aiVector3t@M@@@std@@@std@@@Z
; public: static void __cdecl Assimp::StandardShapes::MakeCone(float,float,float,unsigned int,class std::<class <float>,class std::<class <float>>> &__ptr64 ,bool)
?MakeCone@StandardShapes@Assimp@@SAXMMMIAEAV?$vector@V?$aiVector3t@M@@V?$allocator@V?$aiVector3t@M@@@std@@@std@@_N@Z
; public: static unsigned int __cdecl Assimp::StandardShapes::MakeDodecahedron(class std::<class <float>,class std::<class <float>>> &__ptr64 ,bool)
?MakeDodecahedron@StandardShapes@Assimp@@SAIAEAV?$vector@V?$aiVector3t@M@@V?$allocator@V?$aiVector3t@M@@@std@@@std@@_N@Z
; public: static unsigned int __cdecl Assimp::StandardShapes::MakeHexahedron(class std::<class <float>,class std::<class <float>>> &__ptr64 ,bool)
?MakeHexahedron@StandardShapes@Assimp@@SAIAEAV?$vector@V?$aiVector3t@M@@V?$allocator@V?$aiVector3t@M@@@std@@@std@@_N@Z
; public: static unsigned int __cdecl Assimp::StandardShapes::MakeIcosahedron(class std::<class <float>,class std::<class <float>>> &__ptr64 )
?MakeIcosahedron@StandardShapes@Assimp@@SAIAEAV?$vector@V?$aiVector3t@M@@V?$allocator@V?$aiVector3t@M@@@std@@@std@@@Z
; private: void __cdecl Assimp::PretransformVertices::MakeIdentityTransform(struct aiNode *__ptr64)const __ptr64 
?MakeIdentityTransform@PretransformVertices@Assimp@@AEBAXPEAUaiNode@@@Z
; public: static struct aiMesh *__ptr64 __cdecl Assimp::StandardShapes::MakeMesh(class std::<class <float>,class std::<class <float>>> const &__ptr64 ,unsigned int)
?MakeMesh@StandardShapes@Assimp@@SAPEAUaiMesh@@AEBV?$vector@V?$aiVector3t@M@@V?$allocator@V?$aiVector3t@M@@@std@@@std@@I@Z
; public: static struct aiMesh *__ptr64 __cdecl Assimp::StandardShapes::MakeMesh(unsigned int,void(__cdecl *)(unsigned int,class std::<class <float>,class std::<class <float>>> &__ptr64 ))
?MakeMesh@StandardShapes@Assimp@@SAPEAUaiMesh@@IP6AXIAEAV?$vector@V?$aiVector3t@M@@V?$allocator@V?$aiVector3t@M@@@std@@@std@@@Z@Z
; public: static struct aiMesh *__ptr64 __cdecl Assimp::StandardShapes::MakeMesh(unsigned int(__cdecl *)(class std::<class <float>,class std::<class <float>>> &__ptr64 ))
?MakeMesh@StandardShapes@Assimp@@SAPEAUaiMesh@@P6AIAEAV?$vector@V?$aiVector3t@M@@V?$allocator@V?$aiVector3t@M@@@std@@@std@@@Z@Z
; public: static struct aiMesh *__ptr64 __cdecl Assimp::StandardShapes::MakeMesh(unsigned int(__cdecl *)(class std::<class <float>,class std::<class <float>>> &__ptr64 ,bool))
?MakeMesh@StandardShapes@Assimp@@SAPEAUaiMesh@@P6AIAEAV?$vector@V?$aiVector3t@M@@V?$allocator@V?$aiVector3t@M@@@std@@@std@@_N@Z@Z
; public: static unsigned int __cdecl Assimp::StandardShapes::MakeOctahedron(class std::<class <float>,class std::<class <float>>> &__ptr64 )
?MakeOctahedron@StandardShapes@Assimp@@SAIAEAV?$vector@V?$aiVector3t@M@@V?$allocator@V?$aiVector3t@M@@@std@@@std@@@Z
; public: static void __cdecl Assimp::StandardShapes::MakeSphere(unsigned int,class std::<class <float>,class std::<class <float>>> &__ptr64 )
?MakeSphere@StandardShapes@Assimp@@SAXIAEAV?$vector@V?$aiVector3t@M@@V?$allocator@V?$aiVector3t@M@@@std@@@std@@@Z
; public: static unsigned int __cdecl Assimp::StandardShapes::MakeTetrahedron(class std::<class <float>,class std::<class <float>>> &__ptr64 )
?MakeTetrahedron@StandardShapes@Assimp@@SAIAEAV?$vector@V?$aiVector3t@M@@V?$allocator@V?$aiVector3t@M@@@std@@@std@@@Z
; private: bool __cdecl Assimp::MakeVerboseFormatProcess::MakeVerboseFormat(struct aiMesh *__ptr64)__ptr64 
?MakeVerboseFormat@MakeVerboseFormatProcess@Assimp@@AEAA_NPEAUaiMesh@@@Z
; public: static unsigned int const Assimp::Importer::MaxLenHint
?MaxLenHint@Importer@Assimp@@2IB DATA
; public: static void __cdecl Assimp::SceneCombiner::MergeBones(struct aiMesh *__ptr64,class std::<class std::<struct std::<struct aiMesh *__ptr64>>>,class std::<class std::<struct std::<struct aiMesh *__ptr64>>>)
?MergeBones@SceneCombiner@Assimp@@SAXPEAUaiMesh@@V?$_Vector_const_iterator@V?$_Vector_val@U?$_Simple_types@PEAUaiMesh@@@std@@@std@@@std@@1@Z
; public: static void __cdecl Assimp::SceneCombiner::MergeMaterials(struct aiMaterial *__ptr64 *__ptr64,class std::<class std::<struct std::<struct aiMaterial *__ptr64>>>,class std::<class std::<struct std::<struct aiMaterial *__ptr64>>>)
?MergeMaterials@SceneCombiner@Assimp@@SAXPEAPEAUaiMaterial@@V?$_Vector_const_iterator@V?$_Vector_val@U?$_Simple_types@PEAUaiMaterial@@@std@@@std@@@std@@1@Z
; public: static void __cdecl Assimp::SceneCombiner::MergeMeshes(struct aiMesh *__ptr64 *__ptr64,unsigned int,class std::<class std::<struct std::<struct aiMesh *__ptr64>>>,class std::<class std::<struct std::<struct aiMesh *__ptr64>>>)
?MergeMeshes@SceneCombiner@Assimp@@SAXPEAPEAUaiMesh@@IV?$_Vector_const_iterator@V?$_Vector_val@U?$_Simple_types@PEAUaiMesh@@@std@@@std@@@std@@1@Z
; public: static void __cdecl Assimp::SceneCombiner::MergeScenes(struct aiScene *__ptr64 *__ptr64,class std::<struct aiScene *__ptr64,class std::<struct aiScene *__ptr64>> &__ptr64 ,unsigned int)
?MergeScenes@SceneCombiner@Assimp@@SAXPEAPEAUaiScene@@AEAV?$vector@PEAUaiScene@@V?$allocator@PEAUaiScene@@@std@@@std@@I@Z
; public: static void __cdecl Assimp::SceneCombiner::MergeScenes(struct aiScene *__ptr64 *__ptr64,struct aiScene *__ptr64,class std::<struct Assimp::AttachmentInfo,class std::<struct Assimp::AttachmentInfo>> &__ptr64 ,unsigned int)
?MergeScenes@SceneCombiner@Assimp@@SAXPEAPEAUaiScene@@PEAU3@AEAV?$vector@UAttachmentInfo@Assimp@@V?$allocator@UAttachmentInfo@Assimp@@@std@@@std@@I@Z
; public: static void __cdecl Assimp::SceneCombiner::OffsetNodeMeshIndices(struct aiNode *__ptr64,unsigned int)
?OffsetNodeMeshIndices@SceneCombiner@Assimp@@SAXPEAUaiNode@@I@Z
; private: virtual void __cdecl Assimp::DefaultLogger::OnDebug(char const *__ptr64)__ptr64 
?OnDebug@DefaultLogger@Assimp@@EEAAXPEBD@Z
; public: virtual void __cdecl Assimp::NullLogger::OnDebug(char const *__ptr64)__ptr64 
?OnDebug@NullLogger@Assimp@@UEAAXPEBD@Z
; private: virtual void __cdecl Assimp::DefaultLogger::OnError(char const *__ptr64)__ptr64 
?OnError@DefaultLogger@Assimp@@EEAAXPEBD@Z
; public: virtual void __cdecl Assimp::NullLogger::OnError(char const *__ptr64)__ptr64 
?OnError@NullLogger@Assimp@@UEAAXPEBD@Z
; private: virtual void __cdecl Assimp::DefaultLogger::OnInfo(char const *__ptr64)__ptr64 
?OnInfo@DefaultLogger@Assimp@@EEAAXPEBD@Z
; public: virtual void __cdecl Assimp::NullLogger::OnInfo(char const *__ptr64)__ptr64 
?OnInfo@NullLogger@Assimp@@UEAAXPEBD@Z
; private: virtual void __cdecl Assimp::DefaultLogger::OnVerboseDebug(char const *__ptr64)__ptr64 
?OnVerboseDebug@DefaultLogger@Assimp@@EEAAXPEBD@Z
; public: virtual void __cdecl Assimp::NullLogger::OnVerboseDebug(char const *__ptr64)__ptr64 
?OnVerboseDebug@NullLogger@Assimp@@UEAAXPEBD@Z
; private: virtual void __cdecl Assimp::DefaultLogger::OnWarn(char const *__ptr64)__ptr64 
?OnWarn@DefaultLogger@Assimp@@EEAAXPEBD@Z
; public: virtual void __cdecl Assimp::NullLogger::OnWarn(char const *__ptr64)__ptr64 
?OnWarn@NullLogger@Assimp@@UEAAXPEBD@Z
; public: virtual class Assimp::IOStream *__ptr64 __cdecl Assimp::DefaultIOSystem::Open(char const *__ptr64,char const *__ptr64)__ptr64 
?Open@DefaultIOSystem@Assimp@@UEAAPEAVIOStream@2@PEBD0@Z
; public: class Assimp::IOStream *__ptr64 __cdecl Assimp::IOSystem::Open(class std::<char,struct std::<char>,class std::<char>> const &__ptr64 ,class std::<char,struct std::<char>,class std::<char>> const &__ptr64 )__ptr64 
?Open@IOSystem@Assimp@@QEAAPEAVIOStream@2@AEBV?$basic_string@DU?$char_traits@D@std@@V?$allocator@D@2@@std@@0@Z
; protected: void __cdecl Assimp::SMDImporter::ParseFile(void)__ptr64 
?ParseFile@SMDImporter@Assimp@@IEAAXXZ
; protected: bool __cdecl Assimp::SMDImporter::ParseFloat(char const *__ptr64,char const *__ptr64 *__ptr64,float &__ptr64 )__ptr64 
?ParseFloat@SMDImporter@Assimp@@IEAA_NPEBDPEAPEBDAEAM@Z
; protected: void __cdecl Assimp::SMDImporter::ParseNodeInfo(char const *__ptr64,char const *__ptr64 *__ptr64)__ptr64 
?ParseNodeInfo@SMDImporter@Assimp@@IEAAXPEBDPEAPEBD@Z
; protected: void __cdecl Assimp::SMDImporter::ParseNodesSection(char const *__ptr64,char const *__ptr64 *__ptr64)__ptr64 
?ParseNodesSection@SMDImporter@Assimp@@IEAAXPEBDPEAPEBD@Z
; protected: bool __cdecl Assimp::SMDImporter::ParseSignedInt(char const *__ptr64,char const *__ptr64 *__ptr64,int &__ptr64 )__ptr64 
?ParseSignedInt@SMDImporter@Assimp@@IEAA_NPEBDPEAPEBDAEAH@Z
; protected: void __cdecl Assimp::SMDImporter::ParseSkeletonElement(char const *__ptr64,char const *__ptr64 *__ptr64,int)__ptr64 
?ParseSkeletonElement@SMDImporter@Assimp@@IEAAXPEBDPEAPEBDH@Z
; protected: void __cdecl Assimp::SMDImporter::ParseSkeletonSection(char const *__ptr64,char const *__ptr64 *__ptr64)__ptr64 
?ParseSkeletonSection@SMDImporter@Assimp@@IEAAXPEBDPEAPEBD@Z
; protected: void __cdecl Assimp::SMDImporter::ParseTriangle(char const *__ptr64,char const *__ptr64 *__ptr64)__ptr64 
?ParseTriangle@SMDImporter@Assimp@@IEAAXPEBDPEAPEBD@Z
; protected: void __cdecl Assimp::SMDImporter::ParseTrianglesSection(char const *__ptr64,char const *__ptr64 *__ptr64)__ptr64 
?ParseTrianglesSection@SMDImporter@Assimp@@IEAAXPEBDPEAPEBD@Z
; protected: bool __cdecl Assimp::SMDImporter::ParseUnsignedInt(char const *__ptr64,char const *__ptr64 *__ptr64,unsigned int &__ptr64 )__ptr64 
?ParseUnsignedInt@SMDImporter@Assimp@@IEAA_NPEBDPEAPEBDAEAI@Z
; protected: void __cdecl Assimp::SMDImporter::ParseVASection(char const *__ptr64,char const *__ptr64 *__ptr64)__ptr64 
?ParseVASection@SMDImporter@Assimp@@IEAAXPEBDPEAPEBD@Z
; protected: void __cdecl Assimp::SMDImporter::ParseVertex(char const *__ptr64,char const *__ptr64 *__ptr64,struct Assimp::SMD::Vertex &__ptr64 ,bool)__ptr64 
?ParseVertex@SMDImporter@Assimp@@IEAAXPEBDPEAPEBDAEAUVertex@SMD@2@_N@Z
; public: class Assimp::ImporterPimpl *__ptr64 __cdecl Assimp::Importer::Pimpl(void)__ptr64 
?Pimpl@Importer@Assimp@@QEAAPEAVImporterPimpl@2@XZ
; public: class Assimp::ImporterPimpl const *__ptr64 __cdecl Assimp::Importer::Pimpl(void)const __ptr64 
?Pimpl@Importer@Assimp@@QEBAPEBVImporterPimpl@2@XZ
; public: virtual bool __cdecl Assimp::IOSystem::PopDirectory(void)__ptr64 
?PopDirectory@IOSystem@Assimp@@UEAA_NXZ
; public: void __cdecl Assimp::SGSpatialSort::Prepare(void)__ptr64 
?Prepare@SGSpatialSort@Assimp@@QEAAXXZ
; public: void __cdecl Assimp::FindInvalidDataProcess::ProcessAnimation(struct aiAnimation *__ptr64)__ptr64 
?ProcessAnimation@FindInvalidDataProcess@Assimp@@QEAAXPEAUaiAnimation@@@Z
; protected: void __cdecl Assimp::ScenePreprocessor::ProcessAnimation(struct aiAnimation *__ptr64)__ptr64 
?ProcessAnimation@ScenePreprocessor@Assimp@@IEAAXPEAUaiAnimation@@@Z
; public: void __cdecl Assimp::FindInvalidDataProcess::ProcessAnimationChannel(struct aiNodeAnim *__ptr64)__ptr64 
?ProcessAnimationChannel@FindInvalidDataProcess@Assimp@@QEAAXPEAUaiNodeAnim@@@Z
; protected: bool __cdecl Assimp::CalcTangentsProcess::ProcessMesh(struct aiMesh *__ptr64,unsigned int)__ptr64 
?ProcessMesh@CalcTangentsProcess@Assimp@@IEAA_NPEAUaiMesh@@I@Z
; public: int __cdecl Assimp::FindInvalidDataProcess::ProcessMesh(struct aiMesh *__ptr64)__ptr64 
?ProcessMesh@FindInvalidDataProcess@Assimp@@QEAAHPEAUaiMesh@@@Z
; public: int __cdecl Assimp::JoinVerticesProcess::ProcessMesh(struct aiMesh *__ptr64,unsigned int)__ptr64 
?ProcessMesh@JoinVerticesProcess@Assimp@@QEAAHPEAUaiMesh@@I@Z
; public: void __cdecl Assimp::LimitBoneWeightsProcess::ProcessMesh(struct aiMesh *__ptr64)__ptr64 
?ProcessMesh@LimitBoneWeightsProcess@Assimp@@QEAAXPEAUaiMesh@@@Z
; private: bool __cdecl Assimp::RemoveVCProcess::ProcessMesh(struct aiMesh *__ptr64)__ptr64 
?ProcessMesh@RemoveVCProcess@Assimp@@AEAA_NPEAUaiMesh@@@Z
; protected: void __cdecl Assimp::ScenePreprocessor::ProcessMesh(struct aiMesh *__ptr64)__ptr64 
?ProcessMesh@ScenePreprocessor@Assimp@@IEAAXPEAUaiMesh@@@Z
; public: void __cdecl Assimp::ScenePreprocessor::ProcessScene(void)__ptr64 
?ProcessScene@ScenePreprocessor@Assimp@@QEAAXXZ
; public: virtual bool __cdecl Assimp::IOSystem::PushDirectory(class std::<char,struct std::<char>,class std::<char>> const &__ptr64 )__ptr64 
?PushDirectory@IOSystem@Assimp@@UEAA_NAEBV?$basic_string@DU?$char_traits@D@std@@V?$allocator@D@2@@std@@@Z
; public: virtual unsigned __int64 __cdecl Assimp::DefaultIOStream::Read(void *__ptr64,unsigned __int64,unsigned __int64)__ptr64 
?Read@DefaultIOStream@Assimp@@UEAA_KPEAX_K1@Z
; public: struct aiScene *__ptr64 __cdecl Assimp::BaseImporter::ReadFile(class Assimp::Importer *__ptr64,class std::<char,struct std::<char>,class std::<char>> const &__ptr64 ,class Assimp::IOSystem *__ptr64)__ptr64 
?ReadFile@BaseImporter@Assimp@@QEAAPEAUaiScene@@PEAVImporter@2@AEBV?$basic_string@DU?$char_traits@D@std@@V?$allocator@D@2@@std@@PEAVIOSystem@2@@Z
; public: struct aiScene const *__ptr64 __cdecl Assimp::Importer::ReadFile(class std::<char,struct std::<char>,class std::<char>> const &__ptr64 ,unsigned int)__ptr64 
?ReadFile@Importer@Assimp@@QEAAPEBUaiScene@@AEBV?$basic_string@DU?$char_traits@D@std@@V?$allocator@D@2@@std@@I@Z
; public: struct aiScene const *__ptr64 __cdecl Assimp::Importer::ReadFile(char const *__ptr64,unsigned int)__ptr64 
?ReadFile@Importer@Assimp@@QEAAPEBUaiScene@@PEBDI@Z
; public: struct aiScene const *__ptr64 __cdecl Assimp::Importer::ReadFileFromMemory(void const *__ptr64,unsigned __int64,unsigned int,char const *__ptr64)__ptr64 
?ReadFileFromMemory@Importer@Assimp@@QEAAPEBUaiScene@@PEBX_KIPEBD@Z
; protected: void __cdecl Assimp::SMDImporter::ReadSmd(class std::<char,struct std::<char>,class std::<char>> const &__ptr64 ,class Assimp::IOSystem *__ptr64)__ptr64 
?ReadSmd@SMDImporter@Assimp@@IEAAXAEBV?$basic_string@DU?$char_traits@D@std@@V?$allocator@D@2@@std@@PEAVIOSystem@2@@Z
; public: enum aiReturn __cdecl Assimp::Exporter::RegisterExporter(struct Assimp::Exporter::ExportFormatEntry const &__ptr64 )__ptr64 
?RegisterExporter@Exporter@Assimp@@QEAA?AW4aiReturn@@AEBUExportFormatEntry@12@@Z
; public: enum aiReturn __cdecl Assimp::Importer::RegisterLoader(class Assimp::BaseImporter *__ptr64)__ptr64 
?RegisterLoader@Importer@Assimp@@QEAA?AW4aiReturn@@PEAVBaseImporter@2@@Z
; public: enum aiReturn __cdecl Assimp::Importer::RegisterPPStep(class Assimp::BaseProcess *__ptr64)__ptr64 
?RegisterPPStep@Importer@Assimp@@QEAA?AW4aiReturn@@PEAVBaseProcess@2@@Z
; public: static void __cdecl Assimp::CommentRemover::RemoveLineComments(char const *__ptr64,char *__ptr64,char)
?RemoveLineComments@CommentRemover@Assimp@@SAXPEBDPEADD@Z
; public: static void __cdecl Assimp::CommentRemover::RemoveMultiLineComments(char const *__ptr64,char const *__ptr64,char *__ptr64,char)
?RemoveMultiLineComments@CommentRemover@Assimp@@SAXPEBD0PEADD@Z
; public: enum aiReturn __cdecl aiMaterial::RemoveProperty(char const *__ptr64,unsigned int,unsigned int)__ptr64 
?RemoveProperty@aiMaterial@@QEAA?AW4aiReturn@@PEBDII@Z
; public: virtual bool __cdecl Assimp::BaseProcess::RequireVerboseFormat(void)const __ptr64 
?RequireVerboseFormat@BaseProcess@Assimp@@UEBA_NXZ
; public: static bool __cdecl Assimp::Bitmap::Save(struct aiTexture *__ptr64,class Assimp::IOStream *__ptr64)
?Save@Bitmap@Assimp@@SA_NPEAUaiTexture@@PEAVIOStream@2@@Z
; public: static bool __cdecl Assimp::BaseImporter::SearchFileHeaderForToken(class Assimp::IOSystem *__ptr64,class std::<char,struct std::<char>,class std::<char>> const &__ptr64 ,char const *__ptr64 *__ptr64,unsigned __int64,unsigned int,bool,bool)
?SearchFileHeaderForToken@BaseImporter@Assimp@@SA_NPEAVIOSystem@2@AEBV?$basic_string@DU?$char_traits@D@std@@V?$allocator@D@2@@std@@PEAPEBD_KI_N4@Z
; public: virtual enum aiReturn __cdecl Assimp::DefaultIOStream::Seek(unsigned __int64,enum aiOrigin)__ptr64 
?Seek@DefaultIOStream@Assimp@@UEAA?AW4aiReturn@@_KW4aiOrigin@@@Z
; public: void __cdecl Assimp::RemoveVCProcess::SetDeleteFlags(unsigned int)__ptr64 
?SetDeleteFlags@RemoveVCProcess@Assimp@@QEAAXI@Z
; public: void __cdecl Assimp::Importer::SetExtraVerbose(bool)__ptr64 
?SetExtraVerbose@Importer@Assimp@@QEAAX_N@Z
; public: void __cdecl Assimp::BaseImporter::SetFileScale(double)__ptr64 
?SetFileScale@BaseImporter@Assimp@@QEAAXN@Z
; public: void __cdecl Assimp::RemoveRedundantMatsProcess::SetFixedMaterialsString(class std::<char,struct std::<char>,class std::<char>> const &__ptr64 )__ptr64 
?SetFixedMaterialsString@RemoveRedundantMatsProcess@Assimp@@QEAAXAEBV?$basic_string@DU?$char_traits@D@std@@V?$allocator@D@2@@std@@@Z
; public: void __cdecl Assimp::Exporter::SetIOHandler(class Assimp::IOSystem *__ptr64)__ptr64 
?SetIOHandler@Exporter@Assimp@@QEAAXPEAVIOSystem@2@@Z
; public: void __cdecl Assimp::Importer::SetIOHandler(class Assimp::IOSystem *__ptr64)__ptr64 
?SetIOHandler@Importer@Assimp@@QEAAXPEAVIOSystem@2@@Z
; public: void __cdecl Assimp::SplitLargeMeshesProcess_Triangle::SetLimit(unsigned int)__ptr64 
?SetLimit@SplitLargeMeshesProcess_Triangle@Assimp@@QEAAXI@Z
; public: void __cdecl Assimp::SplitLargeMeshesProcess_Vertex::SetLimit(unsigned int)__ptr64 
?SetLimit@SplitLargeMeshesProcess_Vertex@Assimp@@QEAAXI@Z
; public: void __cdecl Assimp::CalcTangentsProcess::SetMaxSmoothAngle(float)__ptr64 
?SetMaxSmoothAngle@CalcTangentsProcess@Assimp@@QEAAXM@Z
; public: void __cdecl Assimp::GenVertexNormalsProcess::SetMaxSmoothAngle(float)__ptr64 
?SetMaxSmoothAngle@GenVertexNormalsProcess@Assimp@@QEAAXM@Z
; public: void __cdecl Assimp::Exporter::SetProgressHandler(class Assimp::ProgressHandler *__ptr64)__ptr64 
?SetProgressHandler@Exporter@Assimp@@QEAAXPEAVProgressHandler@2@@Z
; public: void __cdecl Assimp::Importer::SetProgressHandler(class Assimp::ProgressHandler *__ptr64)__ptr64 
?SetProgressHandler@Importer@Assimp@@QEAAXPEAVProgressHandler@2@@Z
; public: bool __cdecl Assimp::ExportProperties::SetPropertyBool(char const *__ptr64,bool)__ptr64 
?SetPropertyBool@ExportProperties@Assimp@@QEAA_NPEBD_N@Z
; public: bool __cdecl Assimp::Importer::SetPropertyBool(char const *__ptr64,bool)__ptr64 
?SetPropertyBool@Importer@Assimp@@QEAA_NPEBD_N@Z
; public: bool __cdecl Assimp::ExportProperties::SetPropertyCallback(char const *__ptr64,class std::<void *__ptr64 __cdecl(void *__ptr64)> const &__ptr64 )__ptr64 
?SetPropertyCallback@ExportProperties@Assimp@@QEAA_NPEBDAEBV?$function@$$A6APEAXPEAX@Z@std@@@Z
; public: bool __cdecl Assimp::ExportProperties::SetPropertyFloat(char const *__ptr64,float)__ptr64 
?SetPropertyFloat@ExportProperties@Assimp@@QEAA_NPEBDM@Z
; public: bool __cdecl Assimp::Importer::SetPropertyFloat(char const *__ptr64,float)__ptr64 
?SetPropertyFloat@Importer@Assimp@@QEAA_NPEBDM@Z
; public: bool __cdecl Assimp::ExportProperties::SetPropertyInteger(char const *__ptr64,int)__ptr64 
?SetPropertyInteger@ExportProperties@Assimp@@QEAA_NPEBDH@Z
; public: bool __cdecl Assimp::Importer::SetPropertyInteger(char const *__ptr64,int)__ptr64 
?SetPropertyInteger@Importer@Assimp@@QEAA_NPEBDH@Z
; public: bool __cdecl Assimp::ExportProperties::SetPropertyMatrix(char const *__ptr64,class <float> const &__ptr64 )__ptr64 
?SetPropertyMatrix@ExportProperties@Assimp@@QEAA_NPEBDAEBV?$aiMatrix4x4t@M@@@Z
; public: bool __cdecl Assimp::Importer::SetPropertyMatrix(char const *__ptr64,class <float> const &__ptr64 )__ptr64 
?SetPropertyMatrix@Importer@Assimp@@QEAA_NPEBDAEBV?$aiMatrix4x4t@M@@@Z
; public: bool __cdecl Assimp::Importer::SetPropertyPointer(char const *__ptr64,void *__ptr64)__ptr64 
?SetPropertyPointer@Importer@Assimp@@QEAA_NPEBDPEAX@Z
; public: bool __cdecl Assimp::ExportProperties::SetPropertyString(char const *__ptr64,class std::<char,struct std::<char>,class std::<char>> const &__ptr64 )__ptr64 
?SetPropertyString@ExportProperties@Assimp@@QEAA_NPEBDAEBV?$basic_string@DU?$char_traits@D@std@@V?$allocator@D@2@@std@@@Z
; public: bool __cdecl Assimp::Importer::SetPropertyString(char const *__ptr64,class std::<char,struct std::<char>,class std::<char>> const &__ptr64 )__ptr64 
?SetPropertyString@Importer@Assimp@@QEAA_NPEBDAEBV?$basic_string@DU?$char_traits@D@std@@V?$allocator@D@2@@std@@@Z
; public: void __cdecl Assimp::ScenePreprocessor::SetScene(struct aiScene *__ptr64)__ptr64 
?SetScene@ScenePreprocessor@Assimp@@QEAAXPEAUaiScene@@@Z
; public: void __cdecl Assimp::BaseProcess::SetSharedData(class Assimp::SharedPostProcessInfo *__ptr64)__ptr64 
?SetSharedData@BaseProcess@Assimp@@QEAAXPEAVSharedPostProcessInfo@2@@Z
; public: virtual void __cdecl Assimp::ArmaturePopulate::SetupProperties(class Assimp::Importer const *__ptr64)__ptr64 
?SetupProperties@ArmaturePopulate@Assimp@@UEAAXPEBVImporter@2@@Z
; public: virtual void __cdecl Assimp::BaseImporter::SetupProperties(class Assimp::Importer const *__ptr64)__ptr64 
?SetupProperties@BaseImporter@Assimp@@UEAAXPEBVImporter@2@@Z
; public: virtual void __cdecl Assimp::BaseProcess::SetupProperties(class Assimp::Importer const *__ptr64)__ptr64 
?SetupProperties@BaseProcess@Assimp@@UEAAXPEBVImporter@2@@Z
; public: virtual void __cdecl Assimp::CalcTangentsProcess::SetupProperties(class Assimp::Importer const *__ptr64)__ptr64 
?SetupProperties@CalcTangentsProcess@Assimp@@UEAAXPEBVImporter@2@@Z
; public: virtual void __cdecl Assimp::EmbedTexturesProcess::SetupProperties(class Assimp::Importer const *__ptr64)__ptr64 
?SetupProperties@EmbedTexturesProcess@Assimp@@UEAAXPEBVImporter@2@@Z
; public: virtual void __cdecl Assimp::FindDegeneratesProcess::SetupProperties(class Assimp::Importer const *__ptr64)__ptr64 
?SetupProperties@FindDegeneratesProcess@Assimp@@UEAAXPEBVImporter@2@@Z
; public: virtual void __cdecl Assimp::FindInvalidDataProcess::SetupProperties(class Assimp::Importer const *__ptr64)__ptr64 
?SetupProperties@FindInvalidDataProcess@Assimp@@UEAAXPEBVImporter@2@@Z
; public: virtual void __cdecl Assimp::GenVertexNormalsProcess::SetupProperties(class Assimp::Importer const *__ptr64)__ptr64 
?SetupProperties@GenVertexNormalsProcess@Assimp@@UEAAXPEBVImporter@2@@Z
; public: virtual void __cdecl Assimp::LimitBoneWeightsProcess::SetupProperties(class Assimp::Importer const *__ptr64)__ptr64 
?SetupProperties@LimitBoneWeightsProcess@Assimp@@UEAAXPEBVImporter@2@@Z
; public: virtual void __cdecl Assimp::PretransformVertices::SetupProperties(class Assimp::Importer const *__ptr64)__ptr64 
?SetupProperties@PretransformVertices@Assimp@@UEAAXPEBVImporter@2@@Z
; public: virtual void __cdecl Assimp::RemoveRedundantMatsProcess::SetupProperties(class Assimp::Importer const *__ptr64)__ptr64 
?SetupProperties@RemoveRedundantMatsProcess@Assimp@@UEAAXPEBVImporter@2@@Z
; public: virtual void __cdecl Assimp::RemoveVCProcess::SetupProperties(class Assimp::Importer const *__ptr64)__ptr64 
?SetupProperties@RemoveVCProcess@Assimp@@UEAAXPEBVImporter@2@@Z
; public: virtual void __cdecl Assimp::SMDImporter::SetupProperties(class Assimp::Importer const *__ptr64)__ptr64 
?SetupProperties@SMDImporter@Assimp@@UEAAXPEBVImporter@2@@Z
; public: virtual void __cdecl Assimp::ScaleProcess::SetupProperties(class Assimp::Importer const *__ptr64)__ptr64 
?SetupProperties@ScaleProcess@Assimp@@UEAAXPEBVImporter@2@@Z
; public: virtual void __cdecl Assimp::SortByPTypeProcess::SetupProperties(class Assimp::Importer const *__ptr64)__ptr64 
?SetupProperties@SortByPTypeProcess@Assimp@@UEAAXPEBVImporter@2@@Z
; public: virtual void __cdecl Assimp::SplitLargeMeshesProcess_Triangle::SetupProperties(class Assimp::Importer const *__ptr64)__ptr64 
?SetupProperties@SplitLargeMeshesProcess_Triangle@Assimp@@UEAAXPEBVImporter@2@@Z
; public: virtual void __cdecl Assimp::SplitLargeMeshesProcess_Vertex::SetupProperties(class Assimp::Importer const *__ptr64)__ptr64 
?SetupProperties@SplitLargeMeshesProcess_Vertex@Assimp@@UEAAXPEBVImporter@2@@Z
; public: static bool __cdecl Assimp::BaseImporter::SimpleExtensionCheck(class std::<char,struct std::<char>,class std::<char>> const &__ptr64 ,char const *__ptr64,char const *__ptr64,char const *__ptr64)
?SimpleExtensionCheck@BaseImporter@Assimp@@SA_NAEBV?$basic_string@DU?$char_traits@D@std@@V?$allocator@D@2@@std@@PEBD11@Z
; protected: bool __cdecl Assimp::SMDImporter::SkipLine(char const *__ptr64,char const *__ptr64 *__ptr64)__ptr64 
?SkipLine@SMDImporter@Assimp@@IEAA_NPEBDPEAPEBD@Z
; protected: bool __cdecl Assimp::SMDImporter::SkipSpacesAndLineEnd(char const *__ptr64,char const *__ptr64 *__ptr64)__ptr64 
?SkipSpacesAndLineEnd@SMDImporter@Assimp@@IEAA_NPEBDPEAPEBD@Z
; public: void __cdecl Assimp::SplitLargeMeshesProcess_Triangle::SplitMesh(unsigned int,struct aiMesh *__ptr64,class std::<struct std::<struct aiMesh *__ptr64,unsigned int>,class std::<struct std::<struct aiMesh *__ptr64,unsigned int>>> &__ptr64 )__ptr64 
?SplitMesh@SplitLargeMeshesProcess_Triangle@Assimp@@QEAAXIPEAUaiMesh@@AEAV?$vector@U?$pair@PEAUaiMesh@@I@std@@V?$allocator@U?$pair@PEAUaiMesh@@I@std@@@2@@std@@@Z
; public: void __cdecl Assimp::SplitLargeMeshesProcess_Vertex::SplitMesh(unsigned int,struct aiMesh *__ptr64,class std::<struct std::<struct aiMesh *__ptr64,unsigned int>,class std::<struct std::<struct aiMesh *__ptr64,unsigned int>>> &__ptr64 )__ptr64 
?SplitMesh@SplitLargeMeshesProcess_Vertex@Assimp@@QEAAXIPEAUaiMesh@@AEAV?$vector@U?$pair@PEAUaiMesh@@I@std@@V?$allocator@U?$pair@PEAUaiMesh@@I@std@@@2@@std@@@Z
; public: virtual unsigned __int64 __cdecl Assimp::IOSystem::StackSize(void)const __ptr64 
?StackSize@IOSystem@Assimp@@UEBA_KXZ
; public: static class std::<void __cdecl(enum ODDLParser::LogSeverity,class std::<char,struct std::<char>,class std::<char>> const &__ptr64 )> __cdecl ODDLParser::OpenDDLParser::StdLogCallback(struct _iobuf *__ptr64)
?StdLogCallback@OpenDDLParser@ODDLParser@@SA?AV?$function@$$A6AXW4LogSeverity@ODDLParser@@AEBV?$basic_string@DU?$char_traits@D@std@@V?$allocator@D@2@@std@@@Z@std@@PEAU_iobuf@@@Z
; public: virtual unsigned __int64 __cdecl Assimp::DefaultIOStream::Tell(void)const __ptr64 
?Tell@DefaultIOStream@Assimp@@UEBA_KXZ
; public: static void __cdecl Assimp::BaseImporter::TextFileToBuffer(class Assimp::IOStream *__ptr64,class std::<char,class std::<char>> &__ptr64 ,enum Assimp::BaseImporter::TextFileMode)
?TextFileToBuffer@BaseImporter@Assimp@@SAXPEAVIOStream@2@AEAV?$vector@DV?$allocator@D@std@@@std@@W4TextFileMode@12@@Z
; public: bool __cdecl Assimp::TriangulateProcess::TriangulateMesh(struct aiMesh *__ptr64)__ptr64 
?TriangulateMesh@TriangulateProcess@Assimp@@QEAA_NPEAUaiMesh@@@Z
; public: void __cdecl Assimp::Exporter::UnregisterExporter(char const *__ptr64)__ptr64 
?UnregisterExporter@Exporter@Assimp@@QEAAXPEBD@Z
; public: enum aiReturn __cdecl Assimp::Importer::UnregisterLoader(class Assimp::BaseImporter *__ptr64)__ptr64 
?UnregisterLoader@Importer@Assimp@@QEAA?AW4aiReturn@@PEAVBaseImporter@2@@Z
; public: enum aiReturn __cdecl Assimp::Importer::UnregisterPPStep(class Assimp::BaseProcess *__ptr64)__ptr64 
?UnregisterPPStep@Importer@Assimp@@QEAA?AW4aiReturn@@PEAVBaseProcess@2@@Z
; public: virtual void __cdecl Assimp::ProgressHandler::UpdateFileRead(int,int)__ptr64 
?UpdateFileRead@ProgressHandler@Assimp@@UEAAXHH@Z
; public: virtual void __cdecl Assimp::ProgressHandler::UpdateFileWrite(int,int)__ptr64 
?UpdateFileWrite@ProgressHandler@Assimp@@UEAAXHH@Z
; private: void __cdecl Assimp::BaseImporter::UpdateImporterScale(class Assimp::Importer *__ptr64)__ptr64 
?UpdateImporterScale@BaseImporter@Assimp@@AEAAXPEAVImporter@2@@Z
; public: static void __cdecl Assimp::SplitLargeMeshesProcess_Triangle::UpdateNode(struct aiNode *__ptr64,class std::<struct std::<struct aiMesh *__ptr64,unsigned int>,class std::<struct std::<struct aiMesh *__ptr64,unsigned int>>> const &__ptr64 )
?UpdateNode@SplitLargeMeshesProcess_Triangle@Assimp@@SAXPEAUaiNode@@AEBV?$vector@U?$pair@PEAUaiMesh@@I@std@@V?$allocator@U?$pair@PEAUaiMesh@@I@std@@@2@@std@@@Z
; public: virtual void __cdecl Assimp::ProgressHandler::UpdatePostProcess(int,int)__ptr64 
?UpdatePostProcess@ProgressHandler@Assimp@@UEAAXHH@Z
; public: bool __cdecl Assimp::Importer::ValidateFlags(unsigned int)const __ptr64 
?ValidateFlags@Importer@Assimp@@QEBA_NI@Z
; public: virtual unsigned __int64 __cdecl Assimp::DefaultIOStream::Write(void const *__ptr64,unsigned __int64,unsigned __int64)__ptr64 
?Write@DefaultIOStream@Assimp@@UEAA_KPEBX_K1@Z
; protected: static void __cdecl Assimp::Bitmap::WriteDIB(struct Assimp::Bitmap::DIB &__ptr64 ,class Assimp::IOStream *__ptr64)
?WriteDIB@Bitmap@Assimp@@KAXAEAUDIB@12@PEAVIOStream@2@@Z
; protected: static void __cdecl Assimp::Bitmap::WriteData(struct aiTexture *__ptr64,class Assimp::IOStream *__ptr64)
?WriteData@Bitmap@Assimp@@KAXPEAUaiTexture@@PEAVIOStream@2@@Z
; protected: static void __cdecl Assimp::Bitmap::WriteHeader(struct Assimp::Bitmap::Header &__ptr64 ,class Assimp::IOStream *__ptr64)
?WriteHeader@Bitmap@Assimp@@KAXAEAUHeader@12@PEAVIOStream@2@@Z
; private: void __cdecl Assimp::DefaultLogger::WriteToStreams(char const *__ptr64,enum Assimp::Logger::ErrorSeverity)__ptr64 
?WriteToStreams@DefaultLogger@Assimp@@AEAAXPEBDW4ErrorSeverity@Logger@2@@Z
; public: static class std::<char,struct std::<char>,class std::<char>> __cdecl Assimp::DefaultIOSystem::absolutePath(class std::<char,struct std::<char>,class std::<char>> const &__ptr64 )
?absolutePath@DefaultIOSystem@Assimp@@SA?AV?$basic_string@DU?$char_traits@D@std@@V?$allocator@D@2@@std@@AEBV34@@Z
; public: void __cdecl aiNode::addChildren(unsigned int,struct aiNode *__ptr64 *__ptr64)__ptr64 
?addChildren@aiNode@@QEAAXIPEAPEAU1@@Z
; private: bool __cdecl Assimp::EmbedTexturesProcess::addTexture(struct aiScene *__ptr64,class std::<char,struct std::<char>,class std::<char>> const &__ptr64 )const __ptr64 
?addTexture@EmbedTexturesProcess@Assimp@@AEBA_NPEAUaiScene@@AEBV?$basic_string@DU?$char_traits@D@std@@V?$allocator@D@2@@std@@@Z
; struct aiScene const *__ptr64 __cdecl aiApplyCustomizedPostProcessing(struct aiScene const *__ptr64,class Assimp::BaseProcess *__ptr64,bool)
?aiApplyCustomizedPostProcessing@@YAPEBUaiScene@@PEBU1@PEAVBaseProcess@Assimp@@_N@Z
; void __cdecl Assimp::aiAssertViolation(char const *__ptr64,char const *__ptr64,int)
?aiAssertViolation@Assimp@@YAXPEBD0H@Z
; struct aiAnimMesh *__ptr64 __cdecl Assimp::aiCreateAnimMesh(struct aiMesh const *__ptr64,bool,bool,bool,bool,bool)
?aiCreateAnimMesh@Assimp@@YAPEAUaiAnimMesh@@PEBUaiMesh@@_N1111@Z
; public: static class ODDLParser::Value *__ptr64 __cdecl ODDLParser::ValueAllocator::allocPrimData(enum ODDLParser::Value::ValueType,unsigned __int64)
?allocPrimData@ValueAllocator@ODDLParser@@SAPEAVValue@2@W4ValueType@32@_K@Z
; private: void __cdecl Assimp::ScaleProcess::applyScaling(struct aiNode *__ptr64)__ptr64 
?applyScaling@ScaleProcess@Assimp@@AEAAXPEAUaiNode@@@Z
; public: void __cdecl ODDLParser::DDLNode::attachParent(class ODDLParser::DDLNode *__ptr64)__ptr64 
?attachParent@DDLNode@ODDLParser@@QEAAXPEAV12@@Z
; public: virtual bool __cdecl Assimp::DefaultLogger::attachStream(class Assimp::LogStream *__ptr64,unsigned int)__ptr64 
?attachStream@DefaultLogger@Assimp@@UEAA_NPEAVLogStream@2@I@Z
; public: virtual bool __cdecl Assimp::NullLogger::attachStream(class Assimp::LogStream *__ptr64,unsigned int)__ptr64 
?attachStream@NullLogger@Assimp@@UEAA_NPEAVLogStream@2@I@Z
; public: void __cdecl ODDLParser::Context::clear(void)__ptr64 
?clear@Context@ODDLParser@@QEAAXXZ
; public: void __cdecl ODDLParser::OpenDDLParser::clear(void)__ptr64 
?clear@OpenDDLParser@ODDLParser@@QEAAXXZ
; public: void __cdecl ODDLParser::Text::clear(void)__ptr64 
?clear@Text@ODDLParser@@QEAAXXZ
; public: virtual bool __cdecl ODDLParser::IOStreamBase::close(void)__ptr64 
?close@IOStreamBase@ODDLParser@@UEAA_NXZ
; public: static class std::<char,struct std::<char>,class std::<char>> __cdecl Assimp::DefaultIOSystem::completeBaseName(class std::<char,struct std::<char>,class std::<char>> const &__ptr64 )
?completeBaseName@DefaultIOSystem@Assimp@@SA?AV?$basic_string@DU?$char_traits@D@std@@V?$allocator@D@2@@std@@AEBV34@@Z
; protected: void __cdecl Assimp::ObjFileParser::copyNextWord(char *__ptr64,unsigned __int64)__ptr64 
?copyNextWord@ObjFileParser@Assimp@@IEAAXPEAD_K@Z
; public: static class ODDLParser::DDLNode *__ptr64 __cdecl ODDLParser::DDLNode::create(class std::<char,struct std::<char>,class std::<char>> const &__ptr64 ,class std::<char,struct std::<char>,class std::<char>> const &__ptr64 ,class ODDLParser::DDLNode *__ptr64)
?create@DDLNode@ODDLParser@@SAPEAV12@AEBV?$basic_string@DU?$char_traits@D@std@@V?$allocator@D@2@@std@@0PEAV12@@Z
; public: static class Assimp::Logger *__ptr64 __cdecl Assimp::DefaultLogger::create(char const *__ptr64,enum Assimp::Logger::LogSeverity,unsigned int,class Assimp::IOSystem *__ptr64)
?create@DefaultLogger@Assimp@@SAPEAVLogger@2@PEBDW4LogSeverity@32@IPEAVIOSystem@2@@Z
; public: static class Assimp::LogStream *__ptr64 __cdecl Assimp::LogStream::createDefaultStream(enum aiDefaultLogStream,char const *__ptr64,class Assimp::IOSystem *__ptr64)
?createDefaultStream@LogStream@Assimp@@SAPEAV12@W4aiDefaultLogStream@@PEBDPEAVIOSystem@2@@Z
; protected: void __cdecl Assimp::ObjFileParser::createMesh(class std::<char,struct std::<char>,class std::<char>> const &__ptr64 )__ptr64 
?createMesh@ObjFileParser@Assimp@@IEAAXAEBV?$basic_string@DU?$char_traits@D@std@@V?$allocator@D@2@@std@@@Z
; protected: void __cdecl Assimp::ObjFileParser::createObject(class std::<char,struct std::<char>,class std::<char>> const &__ptr64 )__ptr64 
?createObject@ObjFileParser@Assimp@@IEAAXAEBV?$basic_string@DU?$char_traits@D@std@@V?$allocator@D@2@@std@@@Z
; public: void __cdecl Assimp::Logger::debug(char const *__ptr64)__ptr64 
?debug@Logger@Assimp@@QEAAXPEBD@Z
; void __cdecl Assimp::defaultAiAssertHandler(char const *__ptr64,char const *__ptr64,int)
?defaultAiAssertHandler@Assimp@@YAXPEBD0H@Z
; public: void __cdecl ODDLParser::DDLNode::detachParent(void)__ptr64 
?detachParent@DDLNode@ODDLParser@@QEAAXXZ
; public: virtual bool __cdecl Assimp::DefaultLogger::detachStream(class Assimp::LogStream *__ptr64,unsigned int)__ptr64 
?detachStream@DefaultLogger@Assimp@@UEAA_NPEAVLogStream@2@I@Z
; public: virtual bool __cdecl Assimp::NullLogger::detachStream(class Assimp::LogStream *__ptr64,unsigned int)__ptr64 
?detachStream@NullLogger@Assimp@@UEAA_NPEAVLogStream@2@I@Z
; public: void __cdecl ODDLParser::DDLNode::dump(class ODDLParser::IOStreamBase &__ptr64 )__ptr64 
?dump@DDLNode@ODDLParser@@QEAAXAEAVIOStreamBase@2@@Z
; public: void __cdecl ODDLParser::Value::dump(class ODDLParser::IOStreamBase &__ptr64 )__ptr64 
?dump@Value@ODDLParser@@QEAAXAEAVIOStreamBase@2@@Z
; public: void __cdecl Assimp::Logger::error(char const *__ptr64)__ptr64 
?error@Logger@Assimp@@QEAAXPEBD@Z
; public: bool __cdecl ODDLParser::OpenDDLExport::exportContext(struct ODDLParser::Context *__ptr64,class std::<char,struct std::<char>,class std::<char>> const &__ptr64 )__ptr64 
?exportContext@OpenDDLExport@ODDLParser@@QEAA_NPEAUContext@2@AEBV?$basic_string@DU?$char_traits@D@std@@V?$allocator@D@2@@std@@@Z
; public: bool __cdecl ODDLParser::OpenDDLParser::exportContext(struct ODDLParser::Context *__ptr64,class std::<char,struct std::<char>,class std::<char>> const &__ptr64 )__ptr64 
?exportContext@OpenDDLParser@ODDLParser@@QEAA_NPEAUContext@2@AEBV?$basic_string@DU?$char_traits@D@std@@V?$allocator@D@2@@std@@@Z
; public: static class std::<char,struct std::<char>,class std::<char>> __cdecl Assimp::DefaultIOSystem::fileName(class std::<char,struct std::<char>,class std::<char>> const &__ptr64 )
?fileName@DefaultIOSystem@Assimp@@SA?AV?$basic_string@DU?$char_traits@D@std@@V?$allocator@D@2@@std@@AEBV34@@Z
; public: struct ODDLParser::Property *__ptr64 __cdecl ODDLParser::DDLNode::findPropertyByName(class std::<char,struct std::<char>,class std::<char>> const &__ptr64 )__ptr64 
?findPropertyByName@DDLNode@ODDLParser@@QEAAPEAUProperty@2@AEBV?$basic_string@DU?$char_traits@D@std@@V?$allocator@D@2@@std@@@Z
; public: virtual class std::<char,struct std::<char>,class std::<char>> __cdecl ODDLParser::StreamFormatterBase::format(class std::<char,struct std::<char>,class std::<char>> const &__ptr64 )__ptr64 
?format@StreamFormatterBase@ODDLParser@@UEAA?AV?$basic_string@DU?$char_traits@D@std@@V?$allocator@D@2@@std@@AEBV34@@Z
; protected: class std::<char,struct std::<char>,class std::<char>> __cdecl Assimp::Logger::formatMessage(class Assimp::Formatter::<char,struct std::<char>,class std::<char>>)__ptr64 
?formatMessage@Logger@Assimp@@IEAA?AV?$basic_string@DU?$char_traits@D@std@@V?$allocator@D@2@@std@@V?$basic_formatter@DU?$char_traits@D@std@@V?$allocator@D@2@@Formatter@2@@Z
; public: static class Assimp::Logger *__ptr64 __cdecl Assimp::DefaultLogger::get(void)
?get@DefaultLogger@Assimp@@SAPEAVLogger@2@XZ
; public: bool __cdecl ODDLParser::Value::getBool(void)__ptr64 
?getBool@Value@ODDLParser@@QEAA_NXZ
; public: char const *__ptr64 __cdecl ODDLParser::OpenDDLParser::getBuffer(void)const __ptr64 
?getBuffer@OpenDDLParser@ODDLParser@@QEBAPEBDXZ
; public: unsigned __int64 __cdecl ODDLParser::OpenDDLParser::getBufferSize(void)const __ptr64 
?getBufferSize@OpenDDLParser@ODDLParser@@QEBA_KXZ
; public: class std::<class ODDLParser::DDLNode *__ptr64,class std::<class ODDLParser::DDLNode *__ptr64>> const &__ptr64 __cdecl ODDLParser::DDLNode::getChildNodeList(void)const __ptr64 
?getChildNodeList@DDLNode@ODDLParser@@QEBAAEBV?$vector@PEAVDDLNode@ODDLParser@@V?$allocator@PEAVDDLNode@ODDLParser@@@std@@@std@@XZ
; protected: void __cdecl Assimp::ObjFileParser::getComment(void)__ptr64 
?getComment@ObjFileParser@Assimp@@IEAAXXZ
; public: struct ODDLParser::Context *__ptr64 __cdecl ODDLParser::OpenDDLParser::getContext(void)const __ptr64 
?getContext@OpenDDLParser@ODDLParser@@QEBAPEAUContext@2@XZ
; public: struct ODDLParser::DataArrayList *__ptr64 __cdecl ODDLParser::DDLNode::getDataArrayList(void)const __ptr64 
?getDataArrayList@DDLNode@ODDLParser@@QEBAPEAUDataArrayList@2@XZ
; public: double __cdecl ODDLParser::Value::getDouble(void)const __ptr64 
?getDouble@Value@ODDLParser@@QEBANXZ
; protected: void __cdecl Assimp::ObjFileParser::getFace(enum aiPrimitiveType)__ptr64 
?getFace@ObjFileParser@Assimp@@IEAAXW4aiPrimitiveType@@@Z
; public: float __cdecl ODDLParser::Value::getFloat(void)const __ptr64 
?getFloat@Value@ODDLParser@@QEBAMXZ
; protected: void __cdecl Assimp::ObjFileParser::getGroupName(void)__ptr64 
?getGroupName@ObjFileParser@Assimp@@IEAAXXZ
; protected: void __cdecl Assimp::ObjFileParser::getGroupNumber(void)__ptr64 
?getGroupNumber@ObjFileParser@Assimp@@IEAAXXZ
; protected: void __cdecl Assimp::ObjFileParser::getGroupNumberAndResolution(void)__ptr64 
?getGroupNumberAndResolution@ObjFileParser@Assimp@@IEAAXXZ
; protected: void __cdecl Assimp::ObjFileParser::getHomogeneousVector3(class std::<class <float>,class std::<class <float>>> &__ptr64 )__ptr64 
?getHomogeneousVector3@ObjFileParser@Assimp@@IEAAXAEAV?$vector@V?$aiVector3t@M@@V?$allocator@V?$aiVector3t@M@@@std@@@std@@@Z
; public: short __cdecl ODDLParser::Value::getInt16(void)__ptr64 
?getInt16@Value@ODDLParser@@QEAAFXZ
; public: int __cdecl ODDLParser::Value::getInt32(void)__ptr64 
?getInt32@Value@ODDLParser@@QEAAHXZ
; public: __int64 __cdecl ODDLParser::Value::getInt64(void)__ptr64 
?getInt64@Value@ODDLParser@@QEAA_JXZ
; public: signed char __cdecl ODDLParser::Value::getInt8(void)__ptr64 
?getInt8@Value@ODDLParser@@QEAACXZ
; public: class std::<void __cdecl(enum ODDLParser::LogSeverity,class std::<char,struct std::<char>,class std::<char>> const &__ptr64 )> __cdecl ODDLParser::OpenDDLParser::getLogCallback(void)const __ptr64 
?getLogCallback@OpenDDLParser@ODDLParser@@QEBA?AV?$function@$$A6AXW4LogSeverity@ODDLParser@@AEBV?$basic_string@DU?$char_traits@D@std@@V?$allocator@D@2@@std@@@Z@std@@XZ
; public: enum Assimp::Logger::LogSeverity __cdecl Assimp::Logger::getLogSeverity(void)const __ptr64 
?getLogSeverity@Logger@Assimp@@QEBA?AW4LogSeverity@12@XZ
; protected: void __cdecl Assimp::ObjFileParser::getMaterialDesc(void)__ptr64 
?getMaterialDesc@ObjFileParser@Assimp@@IEAAXXZ
; protected: int __cdecl Assimp::ObjFileParser::getMaterialIndex(class std::<char,struct std::<char>,class std::<char>> const &__ptr64 )__ptr64 
?getMaterialIndex@ObjFileParser@Assimp@@IEAAHAEBV?$basic_string@DU?$char_traits@D@std@@V?$allocator@D@2@@std@@@Z
; protected: void __cdecl Assimp::ObjFileParser::getMaterialLib(void)__ptr64 
?getMaterialLib@ObjFileParser@Assimp@@IEAAXXZ
; public: class std::<char,struct std::<char>,class std::<char>> const &__ptr64 __cdecl ODDLParser::DDLNode::getName(void)const __ptr64 
?getName@DDLNode@ODDLParser@@QEBAAEBV?$basic_string@DU?$char_traits@D@std@@V?$allocator@D@2@@std@@XZ
; protected: void __cdecl Assimp::ObjFileParser::getNewMaterial(void)__ptr64 
?getNewMaterial@ObjFileParser@Assimp@@IEAAXXZ
; public: class ODDLParser::Value *__ptr64 __cdecl ODDLParser::Value::Iterator::getNext(void)__ptr64 
?getNext@Iterator@Value@ODDLParser@@QEAAPEAV23@XZ
; public: class ODDLParser::Value *__ptr64 __cdecl ODDLParser::Value::getNext(void)const __ptr64 
?getNext@Value@ODDLParser@@QEBAPEAV12@XZ
; protected: unsigned __int64 __cdecl Assimp::ObjFileParser::getNumComponentsInDataDefinition(void)__ptr64 
?getNumComponentsInDataDefinition@ObjFileParser@Assimp@@IEAA_KXZ
; protected: void __cdecl Assimp::ObjFileParser::getObjectName(void)__ptr64 
?getObjectName@ObjFileParser@Assimp@@IEAAXXZ
; public: virtual char __cdecl Assimp::DefaultIOSystem::getOsSeparator(void)const __ptr64 
?getOsSeparator@DefaultIOSystem@Assimp@@UEBADXZ
; public: class ODDLParser::DDLNode *__ptr64 __cdecl ODDLParser::DDLNode::getParent(void)const __ptr64 
?getParent@DDLNode@ODDLParser@@QEBAPEAV12@XZ
; public: struct ODDLParser::Property *__ptr64 __cdecl ODDLParser::DDLNode::getProperties(void)const __ptr64 
?getProperties@DDLNode@ODDLParser@@QEBAPEAUProperty@2@XZ
; public: struct ODDLParser::Reference *__ptr64 __cdecl ODDLParser::Value::getRef(void)const __ptr64 
?getRef@Value@ODDLParser@@QEBAPEAUReference@2@XZ
; public: struct ODDLParser::Reference *__ptr64 __cdecl ODDLParser::DDLNode::getReferences(void)const __ptr64 
?getReferences@DDLNode@ODDLParser@@QEBAPEAUReference@2@XZ
; public: class ODDLParser::DDLNode *__ptr64 __cdecl ODDLParser::OpenDDLParser::getRoot(void)const __ptr64 
?getRoot@OpenDDLParser@ODDLParser@@QEBAPEAVDDLNode@2@XZ
; public: float __cdecl Assimp::ScaleProcess::getScale(void)const __ptr64 
?getScale@ScaleProcess@Assimp@@QEBAMXZ
; public: char const *__ptr64 __cdecl ODDLParser::Value::getString(void)const __ptr64 
?getString@Value@ODDLParser@@QEBAPEBDXZ
; protected: unsigned __int64 __cdecl Assimp::ObjFileParser::getTexCoordVector(class std::<class <float>,class std::<class <float>>> &__ptr64 )__ptr64 
?getTexCoordVector@ObjFileParser@Assimp@@IEAA_KAEAV?$vector@V?$aiVector3t@M@@V?$allocator@V?$aiVector3t@M@@@std@@@std@@@Z
; protected: void __cdecl Assimp::ObjFileParser::getTwoVectors3(class std::<class <float>,class std::<class <float>>> &__ptr64 ,class std::<class <float>,class std::<class <float>>> &__ptr64 )__ptr64 
?getTwoVectors3@ObjFileParser@Assimp@@IEAAXAEAV?$vector@V?$aiVector3t@M@@V?$allocator@V?$aiVector3t@M@@@std@@@std@@0@Z
; public: class std::<char,struct std::<char>,class std::<char>> const &__ptr64 __cdecl ODDLParser::DDLNode::getType(void)const __ptr64 
?getType@DDLNode@ODDLParser@@QEBAAEBV?$basic_string@DU?$char_traits@D@std@@V?$allocator@D@2@@std@@XZ
; char const *__ptr64 __cdecl ODDLParser::getTypeToken(enum ODDLParser::Value::ValueType)
?getTypeToken@ODDLParser@@YAPEBDW4ValueType@Value@1@@Z
; public: unsigned short __cdecl ODDLParser::Value::getUnsignedInt16(void)const __ptr64 
?getUnsignedInt16@Value@ODDLParser@@QEBAGXZ
; public: unsigned int __cdecl ODDLParser::Value::getUnsignedInt32(void)const __ptr64 
?getUnsignedInt32@Value@ODDLParser@@QEBAIXZ
; public: unsigned __int64 __cdecl ODDLParser::Value::getUnsignedInt64(void)const __ptr64 
?getUnsignedInt64@Value@ODDLParser@@QEBA_KXZ
; public: unsigned char __cdecl ODDLParser::Value::getUnsignedInt8(void)const __ptr64 
?getUnsignedInt8@Value@ODDLParser@@QEBAEXZ
; public: bool __cdecl Assimp::BatchLoader::getValidation(void)const __ptr64 
?getValidation@BatchLoader@Assimp@@QEBA_NXZ
; public: class ODDLParser::Value *__ptr64 __cdecl ODDLParser::DDLNode::getValue(void)const __ptr64 
?getValue@DDLNode@ODDLParser@@QEBAPEAVValue@2@XZ
; protected: void __cdecl Assimp::ObjFileParser::getVector2(class std::<class <float>,class std::<class <float>>> &__ptr64 )__ptr64 
?getVector2@ObjFileParser@Assimp@@IEAAXAEAV?$vector@V?$aiVector2t@M@@V?$allocator@V?$aiVector2t@M@@@std@@@std@@@Z
; protected: void __cdecl Assimp::ObjFileParser::getVector3(class std::<class <float>,class std::<class <float>>> &__ptr64 )__ptr64 
?getVector3@ObjFileParser@Assimp@@IEAAXAEAV?$vector@V?$aiVector3t@M@@V?$allocator@V?$aiVector3t@M@@@std@@@std@@@Z
; public: static char const *__ptr64 __cdecl ODDLParser::OpenDDLParser::getVersion(void)
?getVersion@OpenDDLParser@ODDLParser@@SAPEBDXZ
; public: bool __cdecl ODDLParser::OpenDDLExport::handleNode(class ODDLParser::DDLNode *__ptr64)__ptr64 
?handleNode@OpenDDLExport@ODDLParser@@QEAA_NPEAVDDLNode@2@@Z
; public: bool __cdecl ODDLParser::Value::Iterator::hasNext(void)const __ptr64 
?hasNext@Iterator@Value@ODDLParser@@QEBA_NXZ
; public: bool __cdecl ODDLParser::DDLNode::hasProperties(void)const __ptr64 
?hasProperties@DDLNode@ODDLParser@@QEBA_NXZ
; public: bool __cdecl ODDLParser::DDLNode::hasProperty(class std::<char,struct std::<char>,class std::<char>> const &__ptr64 )__ptr64 
?hasProperty@DDLNode@ODDLParser@@QEAA_NAEBV?$basic_string@DU?$char_traits@D@std@@V?$allocator@D@2@@std@@@Z
; public: void __cdecl Assimp::Logger::info(char const *__ptr64)__ptr64 
?info@Logger@Assimp@@QEAAXPEBD@Z
; public: bool __cdecl Assimp::FindDegeneratesProcess::isAreaCheckEnabled(void)const __ptr64 
?isAreaCheckEnabled@FindDegeneratesProcess@Assimp@@QEBA_NXZ
; public: static bool __cdecl Assimp::DefaultLogger::isNullLogger(void)
?isNullLogger@DefaultLogger@Assimp@@SA_NXZ
; public: virtual bool __cdecl ODDLParser::IOStreamBase::isOpen(void)const __ptr64 
?isOpen@IOStreamBase@ODDLParser@@UEBA_NXZ
; public: static void __cdecl Assimp::DefaultLogger::kill(void)
?kill@DefaultLogger@Assimp@@SAXXZ
; private: static void __cdecl ODDLParser::OpenDDLParser::logToStream(struct _iobuf *__ptr64,enum ODDLParser::LogSeverity,class std::<char,struct std::<char>,class std::<char>> const &__ptr64 )
?logToStream@OpenDDLParser@ODDLParser@@CAXPEAU_iobuf@@W4LogSeverity@2@AEBV?$basic_string@DU?$char_traits@D@std@@V?$allocator@D@2@@std@@@Z
; protected: static unsigned __int64 const Assimp::Bitmap::mBytesPerPixel
?mBytesPerPixel@Bitmap@Assimp@@1_KB DATA
; private: static class Assimp::Logger *__ptr64 __ptr64 Assimp::DefaultLogger::m_pLogger
?m_pLogger@DefaultLogger@Assimp@@0PEAVLogger@2@EA DATA
; protected: bool __cdecl Assimp::ObjFileParser::needsNewMesh(class std::<char,struct std::<char>,class std::<char>> const &__ptr64 )__ptr64 
?needsNewMesh@ObjFileParser@Assimp@@IEAA_NAEBV?$basic_string@DU?$char_traits@D@std@@V?$allocator@D@2@@std@@@Z
; public: static void __cdecl ODDLParser::OpenDDLParser::normalizeBuffer(class std::<char,class std::<char>> &__ptr64 )
?normalizeBuffer@OpenDDLParser@ODDLParser@@SAXAEAV?$vector@DV?$allocator@D@std@@@std@@@Z
; public: virtual bool __cdecl ODDLParser::IOStreamBase::open(class std::<char,struct std::<char>,class std::<char>> const &__ptr64 )__ptr64 
?open@IOStreamBase@ODDLParser@@UEAA_NAEBV?$basic_string@DU?$char_traits@D@std@@V?$allocator@D@2@@std@@@Z
; public: bool __cdecl ODDLParser::OpenDDLParser::parse(void)__ptr64 
?parse@OpenDDLParser@ODDLParser@@QEAA_NXZ
; public: static char *__ptr64 __cdecl ODDLParser::OpenDDLParser::parseBooleanLiteral(char *__ptr64,char *__ptr64,class ODDLParser::Value *__ptr64 *__ptr64)
?parseBooleanLiteral@OpenDDLParser@ODDLParser@@SAPEADPEAD0PEAPEAVValue@2@@Z
; public: static char *__ptr64 __cdecl ODDLParser::OpenDDLParser::parseDataArrayList(char *__ptr64,char *__ptr64,enum ODDLParser::Value::ValueType,struct ODDLParser::DataArrayList *__ptr64 *__ptr64)
?parseDataArrayList@OpenDDLParser@ODDLParser@@SAPEADPEAD0W4ValueType@Value@2@PEAPEAUDataArrayList@2@@Z
; public: static char *__ptr64 __cdecl ODDLParser::OpenDDLParser::parseDataList(char *__ptr64,char *__ptr64,enum ODDLParser::Value::ValueType,class ODDLParser::Value *__ptr64 *__ptr64,unsigned __int64 &__ptr64 ,struct ODDLParser::Reference *__ptr64 *__ptr64,unsigned __int64 &__ptr64 )
?parseDataList@OpenDDLParser@ODDLParser@@SAPEADPEAD0W4ValueType@Value@2@PEAPEAV42@AEA_KPEAPEAUReference@2@3@Z
; protected: void __cdecl Assimp::ObjFileParser::parseFile(class Assimp::<char> &__ptr64 )__ptr64 
?parseFile@ObjFileParser@Assimp@@IEAAXAEAV?$IOStreamBuffer@D@2@@Z
; public: static char *__ptr64 __cdecl ODDLParser::OpenDDLParser::parseFloatingLiteral(char *__ptr64,char *__ptr64,class ODDLParser::Value *__ptr64 *__ptr64,enum ODDLParser::Value::ValueType)
?parseFloatingLiteral@OpenDDLParser@ODDLParser@@SAPEADPEAD0PEAPEAVValue@2@W4ValueType@32@@Z
; public: char *__ptr64 __cdecl ODDLParser::OpenDDLParser::parseHeader(char *__ptr64,char *__ptr64)__ptr64 
?parseHeader@OpenDDLParser@ODDLParser@@QEAAPEADPEAD0@Z
; public: static char *__ptr64 __cdecl ODDLParser::OpenDDLParser::parseHexaLiteral(char *__ptr64,char *__ptr64,class ODDLParser::Value *__ptr64 *__ptr64)
?parseHexaLiteral@OpenDDLParser@ODDLParser@@SAPEADPEAD0PEAPEAVValue@2@@Z
; public: static char *__ptr64 __cdecl ODDLParser::OpenDDLParser::parseIdentifier(char *__ptr64,char *__ptr64,struct ODDLParser::Text *__ptr64 *__ptr64)
?parseIdentifier@OpenDDLParser@ODDLParser@@SAPEADPEAD0PEAPEAUText@2@@Z
; public: static char *__ptr64 __cdecl ODDLParser::OpenDDLParser::parseIntegerLiteral(char *__ptr64,char *__ptr64,class ODDLParser::Value *__ptr64 *__ptr64,enum ODDLParser::Value::ValueType)
?parseIntegerLiteral@OpenDDLParser@ODDLParser@@SAPEADPEAD0PEAPEAVValue@2@W4ValueType@32@@Z
; public: static char *__ptr64 __cdecl ODDLParser::OpenDDLParser::parseName(char *__ptr64,char *__ptr64,struct ODDLParser::Name *__ptr64 *__ptr64)
?parseName@OpenDDLParser@ODDLParser@@SAPEADPEAD0PEAPEAUName@2@@Z
; public: char *__ptr64 __cdecl ODDLParser::OpenDDLParser::parseNextNode(char *__ptr64,char *__ptr64)__ptr64 
?parseNextNode@OpenDDLParser@ODDLParser@@QEAAPEADPEAD0@Z
; public: static char *__ptr64 __cdecl ODDLParser::OpenDDLParser::parsePrimitiveDataType(char *__ptr64,char *__ptr64,enum ODDLParser::Value::ValueType &__ptr64 ,unsigned __int64 &__ptr64 )
?parsePrimitiveDataType@OpenDDLParser@ODDLParser@@SAPEADPEAD0AEAW4ValueType@Value@2@AEA_K@Z
; public: static char *__ptr64 __cdecl ODDLParser::OpenDDLParser::parseProperty(char *__ptr64,char *__ptr64,struct ODDLParser::Property *__ptr64 *__ptr64)
?parseProperty@OpenDDLParser@ODDLParser@@SAPEADPEAD0PEAPEAUProperty@2@@Z
; public: static char *__ptr64 __cdecl ODDLParser::OpenDDLParser::parseReference(char *__ptr64,char *__ptr64,class std::<struct ODDLParser::Name *__ptr64,class std::<struct ODDLParser::Name *__ptr64>> &__ptr64 )
?parseReference@OpenDDLParser@ODDLParser@@SAPEADPEAD0AEAV?$vector@PEAUName@ODDLParser@@V?$allocator@PEAUName@ODDLParser@@@std@@@std@@@Z
; public: static char *__ptr64 __cdecl ODDLParser::OpenDDLParser::parseStringLiteral(char *__ptr64,char *__ptr64,class ODDLParser::Value *__ptr64 *__ptr64)
?parseStringLiteral@OpenDDLParser@ODDLParser@@SAPEADPEAD0PEAPEAVValue@2@@Z
; public: char *__ptr64 __cdecl ODDLParser::OpenDDLParser::parseStructure(char *__ptr64,char *__ptr64)__ptr64 
?parseStructure@OpenDDLParser@ODDLParser@@QEAAPEADPEAD0@Z
; public: char *__ptr64 __cdecl ODDLParser::OpenDDLParser::parseStructureBody(char *__ptr64,char *__ptr64,bool &__ptr64 )__ptr64 
?parseStructureBody@OpenDDLParser@ODDLParser@@QEAAPEADPEAD0AEA_N@Z
; public: class ODDLParser::DDLNode *__ptr64 __cdecl ODDLParser::OpenDDLParser::popNode(void)__ptr64 
?popNode@OpenDDLParser@ODDLParser@@QEAAPEAVDDLNode@2@XZ
; public: void __cdecl ODDLParser::OpenDDLParser::pushNode(class ODDLParser::DDLNode *__ptr64)__ptr64 
?pushNode@OpenDDLParser@ODDLParser@@QEAAXPEAVDDLNode@2@@Z
; public: virtual unsigned __int64 __cdecl ODDLParser::IOStreamBase::read(unsigned __int64,class std::<char,struct std::<char>,class std::<char>> &__ptr64 )__ptr64 
?read@IOStreamBase@ODDLParser@@UEAA_K_KAEAV?$basic_string@DU?$char_traits@D@std@@V?$allocator@D@2@@std@@@Z
; private: static void __cdecl ODDLParser::DDLNode::releaseNodes(void)
?releaseNodes@DDLNode@ODDLParser@@CAXXZ
; public: static void __cdecl ODDLParser::ValueAllocator::releasePrimData(class ODDLParser::Value *__ptr64 *__ptr64)
?releasePrimData@ValueAllocator@ODDLParser@@SAXPEAPEAVValue@2@@Z
; protected: void __cdecl Assimp::ObjFileParser::reportErrorTokenInFace(void)__ptr64 
?reportErrorTokenInFace@ObjFileParser@Assimp@@IEAAXXZ
; private: static class std::<class ODDLParser::DDLNode *__ptr64,class std::<class ODDLParser::DDLNode *__ptr64>> ODDLParser::DDLNode::s_allocatedNodes
?s_allocatedNodes@DDLNode@ODDLParser@@0V?$vector@PEAVDDLNode@ODDLParser@@V?$allocator@PEAVDDLNode@ODDLParser@@@std@@@std@@A DATA
; private: static class Assimp::NullLogger Assimp::DefaultLogger::s_pNullLogger
?s_pNullLogger@DefaultLogger@Assimp@@0VNullLogger@2@A DATA
; public: static void __cdecl Assimp::DefaultLogger::set(class Assimp::Logger *__ptr64)
?set@DefaultLogger@Assimp@@SAXPEAVLogger@2@@Z
; public: void __cdecl ODDLParser::Text::set(char const *__ptr64,unsigned __int64)__ptr64 
?set@Text@ODDLParser@@QEAAXPEBD_K@Z
; void __cdecl Assimp::setAiAssertHandler(void(__cdecl *)(char const *__ptr64,char const *__ptr64,int))
?setAiAssertHandler@Assimp@@YAXP6AXPEBD0H@Z@Z
; public: void __cdecl ODDLParser::Value::setBool(bool)__ptr64 
?setBool@Value@ODDLParser@@QEAAX_N@Z
; public: void __cdecl Assimp::ObjFileParser::setBuffer(class std::<char,class std::<char>> &__ptr64 )__ptr64 
?setBuffer@ObjFileParser@Assimp@@QEAAXAEAV?$vector@DV?$allocator@D@std@@@std@@@Z
; public: void __cdecl ODDLParser::OpenDDLParser::setBuffer(class std::<char,class std::<char>> const &__ptr64 )__ptr64 
?setBuffer@OpenDDLParser@ODDLParser@@QEAAXAEBV?$vector@DV?$allocator@D@std@@@std@@@Z
; public: void __cdecl ODDLParser::OpenDDLParser::setBuffer(char const *__ptr64,unsigned __int64)__ptr64 
?setBuffer@OpenDDLParser@ODDLParser@@QEAAXPEBD_K@Z
; public: void __cdecl ODDLParser::DDLNode::setDataArrayList(struct ODDLParser::DataArrayList *__ptr64)__ptr64 
?setDataArrayList@DDLNode@ODDLParser@@QEAAXPEAUDataArrayList@2@@Z
; public: void __cdecl ODDLParser::Value::setDouble(double)__ptr64 
?setDouble@Value@ODDLParser@@QEAAXN@Z
; public: void __cdecl ODDLParser::Value::setFloat(float)__ptr64 
?setFloat@Value@ODDLParser@@QEAAXM@Z
; public: void __cdecl ODDLParser::Value::setInt16(short)__ptr64 
?setInt16@Value@ODDLParser@@QEAAXF@Z
; public: void __cdecl ODDLParser::Value::setInt32(int)__ptr64 
?setInt32@Value@ODDLParser@@QEAAXH@Z
; public: void __cdecl ODDLParser::Value::setInt64(__int64)__ptr64 
?setInt64@Value@ODDLParser@@QEAAX_J@Z
; public: void __cdecl ODDLParser::Value::setInt8(signed char)__ptr64 
?setInt8@Value@ODDLParser@@QEAAXC@Z
; public: void __cdecl ODDLParser::OpenDDLParser::setLogCallback(class std::<void __cdecl(enum ODDLParser::LogSeverity,class std::<char,struct std::<char>,class std::<char>> const &__ptr64 )>)__ptr64 
?setLogCallback@OpenDDLParser@ODDLParser@@QEAAXV?$function@$$A6AXW4LogSeverity@ODDLParser@@AEBV?$basic_string@DU?$char_traits@D@std@@V?$allocator@D@2@@std@@@Z@std@@@Z
; public: void __cdecl Assimp::Logger::setLogSeverity(enum Assimp::Logger::LogSeverity)__ptr64 
?setLogSeverity@Logger@Assimp@@QEAAXW4LogSeverity@12@@Z
; public: void __cdecl ODDLParser::DDLNode::setName(class std::<char,struct std::<char>,class std::<char>> const &__ptr64 )__ptr64 
?setName@DDLNode@ODDLParser@@QEAAXAEBV?$basic_string@DU?$char_traits@D@std@@V?$allocator@D@2@@std@@@Z
; public: void __cdecl ODDLParser::Value::setNext(class ODDLParser::Value *__ptr64)__ptr64 
?setNext@Value@ODDLParser@@QEAAXPEAV12@@Z
; public: void __cdecl ODDLParser::DDLNode::setProperties(struct ODDLParser::Property *__ptr64)__ptr64 
?setProperties@DDLNode@ODDLParser@@QEAAXPEAUProperty@2@@Z
; public: void __cdecl ODDLParser::Value::setRef(struct ODDLParser::Reference *__ptr64)__ptr64 
?setRef@Value@ODDLParser@@QEAAXPEAUReference@2@@Z
; public: void __cdecl ODDLParser::DDLNode::setReferences(struct ODDLParser::Reference *__ptr64)__ptr64 
?setReferences@DDLNode@ODDLParser@@QEAAXPEAUReference@2@@Z
; public: void __cdecl Assimp::ScaleProcess::setScale(float)__ptr64 
?setScale@ScaleProcess@Assimp@@QEAAXM@Z
; public: void __cdecl ODDLParser::Value::setString(class std::<char,struct std::<char>,class std::<char>> const &__ptr64 )__ptr64 
?setString@Value@ODDLParser@@QEAAXAEBV?$basic_string@DU?$char_traits@D@std@@V?$allocator@D@2@@std@@@Z
; public: void __cdecl ODDLParser::DDLNode::setType(class std::<char,struct std::<char>,class std::<char>> const &__ptr64 )__ptr64 
?setType@DDLNode@ODDLParser@@QEAAXAEBV?$basic_string@DU?$char_traits@D@std@@V?$allocator@D@2@@std@@@Z
; public: void __cdecl ODDLParser::Value::setUnsignedInt16(unsigned short)__ptr64 
?setUnsignedInt16@Value@ODDLParser@@QEAAXG@Z
; public: void __cdecl ODDLParser::Value::setUnsignedInt32(unsigned int)__ptr64 
?setUnsignedInt32@Value@ODDLParser@@QEAAXI@Z
; public: void __cdecl ODDLParser::Value::setUnsignedInt64(unsigned __int64)__ptr64 
?setUnsignedInt64@Value@ODDLParser@@QEAAX_K@Z
; public: void __cdecl ODDLParser::Value::setUnsignedInt8(unsigned char)__ptr64 
?setUnsignedInt8@Value@ODDLParser@@QEAAXE@Z
; public: void __cdecl Assimp::BatchLoader::setValidation(bool)__ptr64 
?setValidation@BatchLoader@Assimp@@QEAAX_N@Z
; public: void __cdecl ODDLParser::DDLNode::setValue(class ODDLParser::Value *__ptr64)__ptr64 
?setValue@DDLNode@ODDLParser@@QEAAXPEAVValue@2@@Z
; public: unsigned __int64 __cdecl ODDLParser::DataArrayList::size(void)__ptr64 
?size@DataArrayList@ODDLParser@@QEAA_KXZ
; public: unsigned __int64 __cdecl ODDLParser::Value::size(void)const __ptr64 
?size@Value@ODDLParser@@QEBA_KXZ
; public: unsigned __int64 __cdecl ODDLParser::Reference::sizeInBytes(void)__ptr64 
?sizeInBytes@Reference@ODDLParser@@QEAA_KXZ
; public: class ODDLParser::DDLNode *__ptr64 __cdecl ODDLParser::OpenDDLParser::top(void)__ptr64 
?top@OpenDDLParser@ODDLParser@@QEAAPEAVDDLNode@2@XZ
; private: void __cdecl Assimp::ScaleProcess::traverseNodes(struct aiNode *__ptr64,unsigned int)__ptr64 
?traverseNodes@ScaleProcess@Assimp@@AEAAXPEAUaiNode@@I@Z
; public: bool __cdecl ODDLParser::OpenDDLParser::validate(void)__ptr64 
?validate@OpenDDLParser@ODDLParser@@QEAA_NXZ
; public: void __cdecl Assimp::Logger::verboseDebug(char const *__ptr64)__ptr64 
?verboseDebug@Logger@Assimp@@QEAAXPEBD@Z
; public: void __cdecl Assimp::Logger::warn(char const *__ptr64)__ptr64 
?warn@Logger@Assimp@@QEAAXPEBD@Z
; public: virtual unsigned __int64 __cdecl ODDLParser::IOStreamBase::write(class std::<char,struct std::<char>,class std::<char>> const &__ptr64 )__ptr64 
?write@IOStreamBase@ODDLParser@@UEAA_KAEBV?$basic_string@DU?$char_traits@D@std@@V?$allocator@D@2@@std@@@Z
; protected: bool __cdecl ODDLParser::OpenDDLExport::writeNode(class ODDLParser::DDLNode *__ptr64,class std::<char,struct std::<char>,class std::<char>> &__ptr64 )__ptr64 
?writeNode@OpenDDLExport@ODDLParser@@IEAA_NPEAVDDLNode@2@AEAV?$basic_string@DU?$char_traits@D@std@@V?$allocator@D@2@@std@@@Z
; protected: bool __cdecl ODDLParser::OpenDDLExport::writeNodeHeader(class ODDLParser::DDLNode *__ptr64,class std::<char,struct std::<char>,class std::<char>> &__ptr64 )__ptr64 
?writeNodeHeader@OpenDDLExport@ODDLParser@@IEAA_NPEAVDDLNode@2@AEAV?$basic_string@DU?$char_traits@D@std@@V?$allocator@D@2@@std@@@Z
; protected: bool __cdecl ODDLParser::OpenDDLExport::writeProperties(class ODDLParser::DDLNode *__ptr64,class std::<char,struct std::<char>,class std::<char>> &__ptr64 )__ptr64 
?writeProperties@OpenDDLExport@ODDLParser@@IEAA_NPEAVDDLNode@2@AEAV?$basic_string@DU?$char_traits@D@std@@V?$allocator@D@2@@std@@@Z
; public: bool __cdecl ODDLParser::OpenDDLExport::writeToStream(class std::<char,struct std::<char>,class std::<char>> const &__ptr64 )__ptr64 
?writeToStream@OpenDDLExport@ODDLParser@@QEAA_NAEBV?$basic_string@DU?$char_traits@D@std@@V?$allocator@D@2@@std@@@Z
; protected: bool __cdecl ODDLParser::OpenDDLExport::writeValue(class ODDLParser::Value *__ptr64,class std::<char,struct std::<char>,class std::<char>> &__ptr64 )__ptr64 
?writeValue@OpenDDLExport@ODDLParser@@IEAA_NPEAVValue@2@AEAV?$basic_string@DU?$char_traits@D@std@@V?$allocator@D@2@@std@@@Z
; protected: bool __cdecl ODDLParser::OpenDDLExport::writeValueArray(struct ODDLParser::DataArrayList *__ptr64,class std::<char,struct std::<char>,class std::<char>> &__ptr64 )__ptr64 
?writeValueArray@OpenDDLExport@ODDLParser@@IEAA_NPEAUDataArrayList@2@AEAV?$basic_string@DU?$char_traits@D@std@@V?$allocator@D@2@@std@@@Z
; protected: bool __cdecl ODDLParser::OpenDDLExport::writeValueType(enum ODDLParser::Value::ValueType,unsigned __int64,class std::<char,struct std::<char>,class std::<char>> &__ptr64 )__ptr64 
?writeValueType@OpenDDLExport@ODDLParser@@IEAA_NW4ValueType@Value@2@_KAEAV?$basic_string@DU?$char_traits@D@std@@V?$allocator@D@2@@std@@@Z
aiApplyPostProcessing
aiAttachLogStream
aiCopyScene
aiCreatePropertyStore
aiCreateQuaternionFromMatrix
aiDecomposeMatrix
aiDetachAllLogStreams
aiDetachLogStream
aiEnableVerboseLogging
aiExportScene
aiExportSceneEx
aiExportSceneToBlob
aiFreeScene
aiGetBranchName
aiGetCompileFlags
aiGetErrorString
aiGetExportFormatCount
aiGetExportFormatDescription
aiGetExtensionList
aiGetImportFormatCount
aiGetImportFormatDescription
aiGetImporterDesc
aiGetLegalString
aiGetMaterialColor
aiGetMaterialFloatArray
aiGetMaterialIntegerArray
aiGetMaterialProperty
aiGetMaterialString
aiGetMaterialTexture
aiGetMaterialTextureCount
aiGetMaterialUVTransform
aiGetMemoryRequirements
aiGetPredefinedLogStream
aiGetVersionMajor
aiGetVersionMinor
aiGetVersionPatch
aiGetVersionRevision
aiIdentityMatrix3
aiIdentityMatrix4
aiImportFile
aiImportFileEx
aiImportFileExWithProperties
aiImportFileFromMemory
aiImportFileFromMemoryWithProperties
aiIsExtensionSupported
aiMatrix3AreEqual
aiMatrix3AreEqualEpsilon
aiMatrix3Determinant
aiMatrix3FromMatrix4
aiMatrix3FromQuaternion
aiMatrix3FromRotationAroundAxis
aiMatrix3FromTo
aiMatrix3Inverse
aiMatrix3RotationZ
aiMatrix3Translation
aiMatrix4Add
aiMatrix4AreEqual
aiMatrix4AreEqualEpsilon
aiMatrix4DecomposeIntoScalingAxisAnglePosition
aiMatrix4DecomposeIntoScalingEulerAnglesPosition
aiMatrix4DecomposeNoScaling
aiMatrix4Determinant
aiMatrix4FromEulerAngles
aiMatrix4FromMatrix3
aiMatrix4FromRotationAroundAxis
aiMatrix4FromScalingQuaternionPosition
aiMatrix4FromTo
aiMatrix4Inverse
aiMatrix4IsIdentity
aiMatrix4RotationX
aiMatrix4RotationY
aiMatrix4RotationZ
aiMatrix4Scaling
aiMatrix4Translation
aiMultiplyMatrix3
aiMultiplyMatrix4
aiQuaternionAreEqual
aiQuaternionAreEqualEpsilon
aiQuaternionConjugate
aiQuaternionFromAxisAngle
aiQuaternionFromEulerAngles
aiQuaternionFromNormalizedQuaternion
aiQuaternionInterpolate
aiQuaternionMultiply
aiQuaternionNormalize
aiReleaseExportBlob
aiReleaseExportFormatDescription
aiReleaseImport
aiReleasePropertyStore
aiSetImportPropertyFloat
aiSetImportPropertyInteger
aiSetImportPropertyMatrix
aiSetImportPropertyString
aiTextureTypeToString
aiTransformVecByMatrix3
aiTransformVecByMatrix4
aiTransposeMatrix3
aiTransposeMatrix4
aiVector2Add
aiVector2AreEqual
aiVector2AreEqualEpsilon
aiVector2DivideByScalar
aiVector2DivideByVector
aiVector2DotProduct
aiVector2Length
aiVector2Negate
aiVector2Normalize
aiVector2Scale
aiVector2SquareLength
aiVector2Subtract
aiVector2SymMul
aiVector3Add
aiVector3AreEqual
aiVector3AreEqualEpsilon
aiVector3CrossProduct
aiVector3DivideByScalar
aiVector3DivideByVector
aiVector3DotProduct
aiVector3Length
aiVector3LessThan
aiVector3Negate
aiVector3Normalize
aiVector3NormalizeSafe
aiVector3RotateByQuaternion
aiVector3Scale
aiVector3SquareLength
aiVector3Subtract
aiVector3SymMul
